
example.elf:     file format elf32-littleriscv


Disassembly of section .text:

000100b4 <main>:
   100b4:	ff010113          	addi	sp,sp,-16
   100b8:	00112623          	sw	ra,12(sp)
   100bc:	00812423          	sw	s0,8(sp)
   100c0:	00912223          	sw	s1,4(sp)
   100c4:	00200793          	li	a5,2
   100c8:	04a7d463          	bge	a5,a0,10110 <main+0x5c>
   100cc:	0045a403          	lw	s0,4(a1)
   100d0:	0085a483          	lw	s1,8(a1)
   100d4:	00000513          	li	a0,0
   100d8:	404180ef          	jal	ra,284dc <time>
   100dc:	064000ef          	jal	ra,10140 <_Z12init_genrandm>
   100e0:	00048593          	mv	a1,s1
   100e4:	00040513          	mv	a0,s0
   100e8:	309130ef          	jal	ra,23bf0 <_Z17test_custom_imagePKcS0_>
   100ec:	0003d537          	lui	a0,0x3d
   100f0:	ed450513          	addi	a0,a0,-300 # 3ced4 <_ZL21stbi__stdio_callbacks+0x1b0>
   100f4:	3b8180ef          	jal	ra,284ac <system>
   100f8:	00000513          	li	a0,0
   100fc:	00c12083          	lw	ra,12(sp)
   10100:	00812403          	lw	s0,8(sp)
   10104:	00412483          	lw	s1,4(sp)
   10108:	01010113          	addi	sp,sp,16
   1010c:	00008067          	ret
   10110:	0005a583          	lw	a1,0(a1)
   10114:	0003d537          	lui	a0,0x3d
   10118:	eb050513          	addi	a0,a0,-336 # 3ceb0 <_ZL21stbi__stdio_callbacks+0x18c>
   1011c:	298170ef          	jal	ra,273b4 <printf>
   10120:	00100513          	li	a0,1
   10124:	fd9ff06f          	j	100fc <main+0x48>

00010128 <register_fini>:
   10128:	00000793          	li	a5,0
   1012c:	00078863          	beqz	a5,1013c <register_fini+0x14>
   10130:	0002b537          	lui	a0,0x2b
   10134:	36c50513          	addi	a0,a0,876 # 2b36c <__libc_fini_array>
   10138:	1c41b06f          	j	2b2fc <atexit>
   1013c:	00008067          	ret

00010140 <_Z12init_genrandm>:
   10140:	000417b7          	lui	a5,0x41
   10144:	000416b7          	lui	a3,0x41
   10148:	6c079637          	lui	a2,0x6c079
   1014c:	88a7a023          	sw	a0,-1920(a5) # 40880 <_ZL2mt>
   10150:	88468693          	addi	a3,a3,-1916 # 40884 <_ZL2mt+0x4>
   10154:	00100713          	li	a4,1
   10158:	96560613          	addi	a2,a2,-1691 # 6c078965 <_rgmii_lvl2fifo+0x5cb78965>
   1015c:	27000593          	li	a1,624
   10160:	01e55793          	srli	a5,a0,0x1e
   10164:	00a7c7b3          	xor	a5,a5,a0
   10168:	02c787b3          	mul	a5,a5,a2
   1016c:	00468693          	addi	a3,a3,4
   10170:	00e78533          	add	a0,a5,a4
   10174:	fea6ae23          	sw	a0,-4(a3)
   10178:	00170713          	addi	a4,a4,1
   1017c:	feb712e3          	bne	a4,a1,10160 <_Z12init_genrandm+0x20>
   10180:	9ce1ae23          	sw	a4,-1572(gp) # 4083c <_ZL3mti>
   10184:	00008067          	ret

00010188 <_Z13genrand_int32v>:
   10188:	9dc1a783          	lw	a5,-1572(gp) # 4083c <_ZL3mti>
   1018c:	26f00713          	li	a4,623
   10190:	04f74c63          	blt	a4,a5,101e8 <_Z13genrand_int32v+0x60>
   10194:	00041737          	lui	a4,0x41
   10198:	00279693          	slli	a3,a5,0x2
   1019c:	88070713          	addi	a4,a4,-1920 # 40880 <_ZL2mt>
   101a0:	00d70733          	add	a4,a4,a3
   101a4:	00072703          	lw	a4,0(a4)
   101a8:	00178693          	addi	a3,a5,1
   101ac:	00b75793          	srli	a5,a4,0xb
   101b0:	00e7c7b3          	xor	a5,a5,a4
   101b4:	9d2c5637          	lui	a2,0x9d2c5
   101b8:	00779713          	slli	a4,a5,0x7
   101bc:	68060613          	addi	a2,a2,1664 # 9d2c5680 <_rgmii_lvl2fifo+0x8ddc5680>
   101c0:	00c77733          	and	a4,a4,a2
   101c4:	00f74733          	xor	a4,a4,a5
   101c8:	00f71793          	slli	a5,a4,0xf
   101cc:	efc60637          	lui	a2,0xefc60
   101d0:	00c7f7b3          	and	a5,a5,a2
   101d4:	00e7c7b3          	xor	a5,a5,a4
   101d8:	0127d513          	srli	a0,a5,0x12
   101dc:	9cd1ae23          	sw	a3,-1572(gp) # 4083c <_ZL3mti>
   101e0:	00f54533          	xor	a0,a0,a5
   101e4:	00008067          	ret
   101e8:	00041337          	lui	t1,0x41
   101ec:	27100713          	li	a4,625
   101f0:	88030893          	addi	a7,t1,-1920 # 40880 <_ZL2mt>
   101f4:	0ee78863          	beq	a5,a4,102e4 <_Z13genrand_int32v+0x15c>
   101f8:	88032583          	lw	a1,-1920(t1)
   101fc:	80000e37          	lui	t3,0x80000
   10200:	00088713          	mv	a4,a7
   10204:	38c88f13          	addi	t5,a7,908
   10208:	00088693          	mv	a3,a7
   1020c:	9b418513          	addi	a0,gp,-1612 # 40814 <_ZZ13genrand_int32vE5mag01>
   10210:	fffe4e93          	not	t4,t3
   10214:	01c5f633          	and	a2,a1,t3
   10218:	0046a583          	lw	a1,4(a3)
   1021c:	6346a303          	lw	t1,1588(a3)
   10220:	00468693          	addi	a3,a3,4
   10224:	01d5f7b3          	and	a5,a1,t4
   10228:	00c7e7b3          	or	a5,a5,a2
   1022c:	0017f613          	andi	a2,a5,1
   10230:	00261613          	slli	a2,a2,0x2
   10234:	00c50633          	add	a2,a0,a2
   10238:	00062603          	lw	a2,0(a2) # efc60000 <_rgmii_lvl2fifo+0xe0760000>
   1023c:	0017d793          	srli	a5,a5,0x1
   10240:	0067c7b3          	xor	a5,a5,t1
   10244:	00c7c7b3          	xor	a5,a5,a2
   10248:	fef6ae23          	sw	a5,-4(a3)
   1024c:	fcdf14e3          	bne	t5,a3,10214 <_Z13genrand_int32v+0x8c>
   10250:	38c8a603          	lw	a2,908(a7)
   10254:	80000337          	lui	t1,0x80000
   10258:	63088e93          	addi	t4,a7,1584
   1025c:	fff34e13          	not	t3,t1
   10260:	006676b3          	and	a3,a2,t1
   10264:	39072603          	lw	a2,912(a4)
   10268:	00072583          	lw	a1,0(a4)
   1026c:	00470713          	addi	a4,a4,4
   10270:	01c677b3          	and	a5,a2,t3
   10274:	00d7e7b3          	or	a5,a5,a3
   10278:	0017f693          	andi	a3,a5,1
   1027c:	00269693          	slli	a3,a3,0x2
   10280:	00d506b3          	add	a3,a0,a3
   10284:	0006a683          	lw	a3,0(a3)
   10288:	0017d793          	srli	a5,a5,0x1
   1028c:	00b7c7b3          	xor	a5,a5,a1
   10290:	00d7c7b3          	xor	a5,a5,a3
   10294:	38f72423          	sw	a5,904(a4)
   10298:	fcee94e3          	bne	t4,a4,10260 <_Z13genrand_int32v+0xd8>
   1029c:	000016b7          	lui	a3,0x1
   102a0:	00d886b3          	add	a3,a7,a3
   102a4:	9bc6a783          	lw	a5,-1604(a3) # 9bc <_ZL22stbi__g_failure_reason+0x9a4>
   102a8:	0008a703          	lw	a4,0(a7)
   102ac:	6308a583          	lw	a1,1584(a7)
   102b0:	00f377b3          	and	a5,t1,a5
   102b4:	01c77e33          	and	t3,a4,t3
   102b8:	01c7e7b3          	or	a5,a5,t3
   102bc:	0017f613          	andi	a2,a5,1
   102c0:	00261613          	slli	a2,a2,0x2
   102c4:	00c50533          	add	a0,a0,a2
   102c8:	00052603          	lw	a2,0(a0)
   102cc:	0017d793          	srli	a5,a5,0x1
   102d0:	00b7c7b3          	xor	a5,a5,a1
   102d4:	00c7c7b3          	xor	a5,a5,a2
   102d8:	9af6ae23          	sw	a5,-1604(a3)
   102dc:	00100693          	li	a3,1
   102e0:	ecdff06f          	j	101ac <_Z13genrand_int32v+0x24>
   102e4:	00001737          	lui	a4,0x1
   102e8:	57170713          	addi	a4,a4,1393 # 1571 <_ZL22stbi__g_failure_reason+0x1559>
   102ec:	88030893          	addi	a7,t1,-1920 # 7ffff880 <_rgmii_lvl2fifo+0x70aff880>
   102f0:	00041637          	lui	a2,0x41
   102f4:	6c0795b7          	lui	a1,0x6c079
   102f8:	00e8a023          	sw	a4,0(a7)
   102fc:	88460613          	addi	a2,a2,-1916 # 40884 <_ZL2mt+0x4>
   10300:	00100693          	li	a3,1
   10304:	96558593          	addi	a1,a1,-1691 # 6c078965 <_rgmii_lvl2fifo+0x5cb78965>
   10308:	27000513          	li	a0,624
   1030c:	01e75793          	srli	a5,a4,0x1e
   10310:	00e7c7b3          	xor	a5,a5,a4
   10314:	02b787b3          	mul	a5,a5,a1
   10318:	00460613          	addi	a2,a2,4
   1031c:	00d78733          	add	a4,a5,a3
   10320:	fee62e23          	sw	a4,-4(a2)
   10324:	00168693          	addi	a3,a3,1
   10328:	fea692e3          	bne	a3,a0,1030c <_Z13genrand_int32v+0x184>
   1032c:	ecdff06f          	j	101f8 <_Z13genrand_int32v+0x70>

00010330 <_Z13genrand_real1v>:
   10330:	ff010113          	addi	sp,sp,-16
   10334:	00112623          	sw	ra,12(sp)
   10338:	e51ff0ef          	jal	ra,10188 <_Z13genrand_int32v>
   1033c:	695250ef          	jal	ra,361d0 <__floatunsidf>
   10340:	000407b7          	lui	a5,0x40
   10344:	6607a603          	lw	a2,1632(a5) # 40660 <__SDATA_BEGIN__>
   10348:	6647a683          	lw	a3,1636(a5)
   1034c:	6cd240ef          	jal	ra,35218 <__muldf3>
   10350:	00c12083          	lw	ra,12(sp)
   10354:	01010113          	addi	sp,sp,16
   10358:	00008067          	ret

0001035c <stbi__refill_buffer>:
   1035c:	ff010113          	addi	sp,sp,-16
   10360:	01052783          	lw	a5,16(a0)
   10364:	02452603          	lw	a2,36(a0)
   10368:	00812423          	sw	s0,8(sp)
   1036c:	00050413          	mv	s0,a0
   10370:	01c52503          	lw	a0,28(a0)
   10374:	00912223          	sw	s1,4(sp)
   10378:	02840493          	addi	s1,s0,40
   1037c:	00112623          	sw	ra,12(sp)
   10380:	00048593          	mv	a1,s1
   10384:	000780e7          	jalr	a5
   10388:	0ac42703          	lw	a4,172(s0)
   1038c:	0b442683          	lw	a3,180(s0)
   10390:	0a842783          	lw	a5,168(s0)
   10394:	40d70733          	sub	a4,a4,a3
   10398:	00e787b3          	add	a5,a5,a4
   1039c:	0af42423          	sw	a5,168(s0)
   103a0:	00a487b3          	add	a5,s1,a0
   103a4:	00051863          	bnez	a0,103b4 <stbi__refill_buffer+0x58>
   103a8:	02042023          	sw	zero,32(s0)
   103ac:	02940793          	addi	a5,s0,41
   103b0:	02040423          	sb	zero,40(s0)
   103b4:	0a942623          	sw	s1,172(s0)
   103b8:	00c12083          	lw	ra,12(sp)
   103bc:	0af42823          	sw	a5,176(s0)
   103c0:	00812403          	lw	s0,8(sp)
   103c4:	00412483          	lw	s1,4(sp)
   103c8:	01010113          	addi	sp,sp,16
   103cc:	00008067          	ret

000103d0 <stbi__idct_block>:
   103d0:	fffff737          	lui	a4,0xfffff
   103d4:	eb010113          	addi	sp,sp,-336
   103d8:	19b70713          	addi	a4,a4,411 # fffff19b <_rgmii_lvl2fifo+0xf0aff19b>
   103dc:	ffffe7b7          	lui	a5,0xffffe
   103e0:	00e12623          	sw	a4,12(sp)
   103e4:	ffffd737          	lui	a4,0xffffd
   103e8:	14912423          	sw	s1,328(sp)
   103ec:	15212223          	sw	s2,324(sp)
   103f0:	000014b7          	lui	s1,0x1
   103f4:	00002937          	lui	s2,0x2
   103f8:	15312023          	sw	s3,320(sp)
   103fc:	13812623          	sw	s8,300(sp)
   10400:	000039b7          	lui	s3,0x3
   10404:	27178c13          	addi	s8,a5,625 # ffffe271 <_rgmii_lvl2fifo+0xf0afe271>
   10408:	6ff70713          	addi	a4,a4,1791 # ffffd6ff <_rgmii_lvl2fifo+0xf0afd6ff>
   1040c:	09e78793          	addi	a5,a5,158
   10410:	13412e23          	sw	s4,316(sp)
   10414:	13512c23          	sw	s5,312(sp)
   10418:	13612a23          	sw	s6,308(sp)
   1041c:	13712823          	sw	s7,304(sp)
   10420:	13912423          	sw	s9,296(sp)
   10424:	13a12223          	sw	s10,292(sp)
   10428:	8a948c93          	addi	s9,s1,-1879 # 8a9 <_ZL22stbi__g_failure_reason+0x891>
   1042c:	c3f48b93          	addi	s7,s1,-961
   10430:	0da90a93          	addi	s5,s2,218 # 20da <_ZL22stbi__g_failure_reason+0x20c2>
   10434:	14812623          	sw	s0,332(sp)
   10438:	13b12023          	sw	s11,288(sp)
   1043c:	00a12e23          	sw	a0,28(sp)
   10440:	00058d13          	mv	s10,a1
   10444:	01060a13          	addi	s4,a2,16
   10448:	02010813          	addi	a6,sp,32
   1044c:	2d048493          	addi	s1,s1,720
   10450:	4c700b13          	li	s6,1223
   10454:	12a98993          	addi	s3,s3,298 # 312a <_ZL22stbi__g_failure_reason+0x3112>
   10458:	80590913          	addi	s2,s2,-2043
   1045c:	00e12823          	sw	a4,16(sp)
   10460:	00f12a23          	sw	a5,20(sp)
   10464:	01061e03          	lh	t3,16(a2)
   10468:	02061883          	lh	a7,32(a2)
   1046c:	03061e83          	lh	t4,48(a2)
   10470:	04061d83          	lh	s11,64(a2)
   10474:	05061f03          	lh	t5,80(a2)
   10478:	011e6733          	or	a4,t3,a7
   1047c:	06061303          	lh	t1,96(a2)
   10480:	00eee733          	or	a4,t4,a4
   10484:	07061f83          	lh	t6,112(a2)
   10488:	00ede733          	or	a4,s11,a4
   1048c:	00ef6733          	or	a4,t5,a4
   10490:	00e36733          	or	a4,t1,a4
   10494:	01cf02b3          	add	t0,t5,t3
   10498:	01df8533          	add	a0,t6,t4
   1049c:	00efe733          	or	a4,t6,a4
   104a0:	00061783          	lh	a5,0(a2)
   104a4:	01df05b3          	add	a1,t5,t4
   104a8:	00688433          	add	s0,a7,t1
   104ac:	005503b3          	add	t2,a0,t0
   104b0:	01cf86b3          	add	a3,t6,t3
   104b4:	2c071063          	bnez	a4,10774 <stbi__idct_block+0x3a4>
   104b8:	00279793          	slli	a5,a5,0x2
   104bc:	0ef82023          	sw	a5,224(a6)
   104c0:	0cf82023          	sw	a5,192(a6)
   104c4:	0af82023          	sw	a5,160(a6)
   104c8:	08f82023          	sw	a5,128(a6)
   104cc:	06f82023          	sw	a5,96(a6)
   104d0:	04f82023          	sw	a5,64(a6)
   104d4:	02f82023          	sw	a5,32(a6)
   104d8:	00f82023          	sw	a5,0(a6)
   104dc:	00260613          	addi	a2,a2,2
   104e0:	00480813          	addi	a6,a6,4
   104e4:	f8ca10e3          	bne	s4,a2,10464 <stbi__idct_block+0x94>
   104e8:	00002737          	lui	a4,0x2
   104ec:	0da70b13          	addi	s6,a4,218 # 20da <_ZL22stbi__g_failure_reason+0x20c2>
   104f0:	80570713          	addi	a4,a4,-2043
   104f4:	00e12623          	sw	a4,12(sp)
   104f8:	fffff737          	lui	a4,0xfffff
   104fc:	19b70713          	addi	a4,a4,411 # fffff19b <_rgmii_lvl2fifo+0xf0aff19b>
   10500:	ffffe7b7          	lui	a5,0xffffe
   10504:	00e12823          	sw	a4,16(sp)
   10508:	01c12303          	lw	t1,28(sp)
   1050c:	ffffd737          	lui	a4,0xffffd
   10510:	00001a37          	lui	s4,0x1
   10514:	27178c93          	addi	s9,a5,625 # ffffe271 <_rgmii_lvl2fifo+0xf0afe271>
   10518:	00003ab7          	lui	s5,0x3
   1051c:	6ff70713          	addi	a4,a4,1791 # ffffd6ff <_rgmii_lvl2fifo+0xf0afd6ff>
   10520:	09e78793          	addi	a5,a5,158
   10524:	c3fa0c13          	addi	s8,s4,-961 # c3f <_ZL22stbi__g_failure_reason+0xc27>
   10528:	02010613          	addi	a2,sp,32
   1052c:	2d0a0a13          	addi	s4,s4,720
   10530:	4c700b93          	li	s7,1223
   10534:	12aa8a93          	addi	s5,s5,298 # 312a <_ZL22stbi__g_failure_reason+0x3112>
   10538:	00e12a23          	sw	a4,20(sp)
   1053c:	00f12c23          	sw	a5,24(sp)
   10540:	01010937          	lui	s2,0x1010
   10544:	0ff00e13          	li	t3,255
   10548:	01c62383          	lw	t2,28(a2)
   1054c:	00c62703          	lw	a4,12(a2)
   10550:	00862403          	lw	s0,8(a2)
   10554:	01862783          	lw	a5,24(a2)
   10558:	00770833          	add	a6,a4,t2
   1055c:	00001737          	lui	a4,0x1
   10560:	00878db3          	add	s11,a5,s0
   10564:	8a970713          	addi	a4,a4,-1879 # 8a9 <_ZL22stbi__g_failure_reason+0x891>
   10568:	02ed8db3          	mul	s11,s11,a4
   1056c:	01462283          	lw	t0,20(a2)
   10570:	01062683          	lw	a3,16(a2)
   10574:	00c62703          	lw	a4,12(a2)
   10578:	00062e83          	lw	t4,0(a2)
   1057c:	00462f03          	lw	t5,4(a2)
   10580:	005705b3          	add	a1,a4,t0
   10584:	01d68733          	add	a4,a3,t4
   10588:	40de8eb3          	sub	t4,t4,a3
   1058c:	01012683          	lw	a3,16(sp)
   10590:	03840433          	mul	s0,s0,s8
   10594:	01412503          	lw	a0,20(sp)
   10598:	007f0fb3          	add	t6,t5,t2
   1059c:	00c71713          	slli	a4,a4,0xc
   105a0:	005f08b3          	add	a7,t5,t0
   105a4:	010884b3          	add	s1,a7,a6
   105a8:	00ce9e93          	slli	t4,t4,0xc
   105ac:	039787b3          	mul	a5,a5,s9
   105b0:	01b40433          	add	s0,s0,s11
   105b4:	02df8fb3          	mul	t6,t6,a3
   105b8:	008706b3          	add	a3,a4,s0
   105bc:	40870733          	sub	a4,a4,s0
   105c0:	9c300413          	li	s0,-1597
   105c4:	01b787b3          	add	a5,a5,s11
   105c8:	00fe8db3          	add	s11,t4,a5
   105cc:	40fe87b3          	sub	a5,t4,a5
   105d0:	012686b3          	add	a3,a3,s2
   105d4:	01270733          	add	a4,a4,s2
   105d8:	012d8db3          	add	s11,s11,s2
   105dc:	028888b3          	mul	a7,a7,s0
   105e0:	00c12403          	lw	s0,12(sp)
   105e4:	012787b3          	add	a5,a5,s2
   105e8:	02a585b3          	mul	a1,a1,a0
   105ec:	01812503          	lw	a0,24(sp)
   105f0:	034484b3          	mul	s1,s1,s4
   105f4:	028f0f33          	mul	t5,t5,s0
   105f8:	009f8fb3          	add	t6,t6,s1
   105fc:	01f88433          	add	s0,a7,t6
   10600:	009585b3          	add	a1,a1,s1
   10604:	00b888b3          	add	a7,a7,a1
   10608:	02a80833          	mul	a6,a6,a0
   1060c:	00c62503          	lw	a0,12(a2)
   10610:	01e40433          	add	s0,s0,t5
   10614:	00868f33          	add	t5,a3,s0
   10618:	411f5f13          	srai	t5,t5,0x11
   1061c:	0fff7993          	zext.b	s3,t5
   10620:	037383b3          	mul	t2,t2,s7
   10624:	00b805b3          	add	a1,a6,a1
   10628:	01f80833          	add	a6,a6,t6
   1062c:	036282b3          	mul	t0,t0,s6
   10630:	00780833          	add	a6,a6,t2
   10634:	03550eb3          	mul	t4,a0,s5
   10638:	005888b3          	add	a7,a7,t0
   1063c:	01d585b3          	add	a1,a1,t4
   10640:	01ee7863          	bgeu	t3,t5,10650 <stbi__idct_block+0x280>
   10644:	ffff4f13          	not	t5,t5
   10648:	41ff5f13          	srai	t5,t5,0x1f
   1064c:	0fff7993          	zext.b	s3,t5
   10650:	408686b3          	sub	a3,a3,s0
   10654:	4116d693          	srai	a3,a3,0x11
   10658:	01330023          	sb	s3,0(t1)
   1065c:	0ff6fe93          	zext.b	t4,a3
   10660:	00de7863          	bgeu	t3,a3,10670 <stbi__idct_block+0x2a0>
   10664:	fff6c693          	not	a3,a3
   10668:	41f6d693          	srai	a3,a3,0x1f
   1066c:	0ff6fe93          	zext.b	t4,a3
   10670:	00bd86b3          	add	a3,s11,a1
   10674:	4116d693          	srai	a3,a3,0x11
   10678:	01d303a3          	sb	t4,7(t1)
   1067c:	0ff6fe93          	zext.b	t4,a3
   10680:	00de7863          	bgeu	t3,a3,10690 <stbi__idct_block+0x2c0>
   10684:	fff6c693          	not	a3,a3
   10688:	41f6d693          	srai	a3,a3,0x1f
   1068c:	0ff6fe93          	zext.b	t4,a3
   10690:	40bd8db3          	sub	s11,s11,a1
   10694:	411ddd93          	srai	s11,s11,0x11
   10698:	01d300a3          	sb	t4,1(t1)
   1069c:	0ffdf593          	zext.b	a1,s11
   106a0:	01be7863          	bgeu	t3,s11,106b0 <stbi__idct_block+0x2e0>
   106a4:	fffdcd93          	not	s11,s11
   106a8:	41fddd93          	srai	s11,s11,0x1f
   106ac:	0ffdf593          	zext.b	a1,s11
   106b0:	011786b3          	add	a3,a5,a7
   106b4:	4116d693          	srai	a3,a3,0x11
   106b8:	00b30323          	sb	a1,6(t1)
   106bc:	0ff6f593          	zext.b	a1,a3
   106c0:	00de7863          	bgeu	t3,a3,106d0 <stbi__idct_block+0x300>
   106c4:	fff6c693          	not	a3,a3
   106c8:	41f6d693          	srai	a3,a3,0x1f
   106cc:	0ff6f593          	zext.b	a1,a3
   106d0:	411787b3          	sub	a5,a5,a7
   106d4:	4117d793          	srai	a5,a5,0x11
   106d8:	00b30123          	sb	a1,2(t1)
   106dc:	0ff7f693          	zext.b	a3,a5
   106e0:	00fe7863          	bgeu	t3,a5,106f0 <stbi__idct_block+0x320>
   106e4:	fff7c793          	not	a5,a5
   106e8:	41f7d793          	srai	a5,a5,0x1f
   106ec:	0ff7f693          	zext.b	a3,a5
   106f0:	010707b3          	add	a5,a4,a6
   106f4:	4117d793          	srai	a5,a5,0x11
   106f8:	00d302a3          	sb	a3,5(t1)
   106fc:	0ff7f693          	zext.b	a3,a5
   10700:	00fe7863          	bgeu	t3,a5,10710 <stbi__idct_block+0x340>
   10704:	fff7c793          	not	a5,a5
   10708:	41f7d793          	srai	a5,a5,0x1f
   1070c:	0ff7f693          	zext.b	a3,a5
   10710:	41070733          	sub	a4,a4,a6
   10714:	00d301a3          	sb	a3,3(t1)
   10718:	41175713          	srai	a4,a4,0x11
   1071c:	00ee7663          	bgeu	t3,a4,10728 <stbi__idct_block+0x358>
   10720:	fff74713          	not	a4,a4
   10724:	41f75713          	srai	a4,a4,0x1f
   10728:	00e30223          	sb	a4,4(t1)
   1072c:	02060613          	addi	a2,a2,32
   10730:	12010793          	addi	a5,sp,288
   10734:	01a30333          	add	t1,t1,s10
   10738:	e0f618e3          	bne	a2,a5,10548 <stbi__idct_block+0x178>
   1073c:	14c12403          	lw	s0,332(sp)
   10740:	14812483          	lw	s1,328(sp)
   10744:	14412903          	lw	s2,324(sp)
   10748:	14012983          	lw	s3,320(sp)
   1074c:	13c12a03          	lw	s4,316(sp)
   10750:	13812a83          	lw	s5,312(sp)
   10754:	13412b03          	lw	s6,308(sp)
   10758:	13012b83          	lw	s7,304(sp)
   1075c:	12c12c03          	lw	s8,300(sp)
   10760:	12812c83          	lw	s9,296(sp)
   10764:	12412d03          	lw	s10,292(sp)
   10768:	12012d83          	lw	s11,288(sp)
   1076c:	15010113          	addi	sp,sp,336
   10770:	00008067          	ret
   10774:	03940433          	mul	s0,s0,s9
   10778:	00fd8733          	add	a4,s11,a5
   1077c:	00c71713          	slli	a4,a4,0xc
   10780:	41b787b3          	sub	a5,a5,s11
   10784:	00c79793          	slli	a5,a5,0xc
   10788:	00260613          	addi	a2,a2,2
   1078c:	00480813          	addi	a6,a6,4
   10790:	037888b3          	mul	a7,a7,s7
   10794:	03830333          	mul	t1,t1,s8
   10798:	008888b3          	add	a7,a7,s0
   1079c:	00830333          	add	t1,t1,s0
   107a0:	00e88433          	add	s0,a7,a4
   107a4:	41170733          	sub	a4,a4,a7
   107a8:	01012883          	lw	a7,16(sp)
   107ac:	00f30db3          	add	s11,t1,a5
   107b0:	406787b3          	sub	a5,a5,t1
   107b4:	200d8313          	addi	t1,s11,512
   107b8:	00c12d83          	lw	s11,12(sp)
   107bc:	031585b3          	mul	a1,a1,a7
   107c0:	01412883          	lw	a7,20(sp)
   107c4:	20070713          	addi	a4,a4,512
   107c8:	20078793          	addi	a5,a5,512
   107cc:	20040413          	addi	s0,s0,512
   107d0:	029383b3          	mul	t2,t2,s1
   107d4:	03b686b3          	mul	a3,a3,s11
   107d8:	007585b3          	add	a1,a1,t2
   107dc:	03150533          	mul	a0,a0,a7
   107e0:	9c300893          	li	a7,-1597
   107e4:	007686b3          	add	a3,a3,t2
   107e8:	036f8fb3          	mul	t6,t6,s6
   107ec:	031282b3          	mul	t0,t0,a7
   107f0:	00a588b3          	add	a7,a1,a0
   107f4:	00a68533          	add	a0,a3,a0
   107f8:	01f50533          	add	a0,a0,t6
   107fc:	00e50fb3          	add	t6,a0,a4
   10800:	40a70733          	sub	a4,a4,a0
   10804:	40a75713          	srai	a4,a4,0xa
   10808:	06e82e23          	sw	a4,124(a6)
   1080c:	40afd513          	srai	a0,t6,0xa
   10810:	04a82e23          	sw	a0,92(a6)
   10814:	035f0f33          	mul	t5,t5,s5
   10818:	005585b3          	add	a1,a1,t0
   1081c:	005686b3          	add	a3,a3,t0
   10820:	033e8eb3          	mul	t4,t4,s3
   10824:	01e585b3          	add	a1,a1,t5
   10828:	00f58733          	add	a4,a1,a5
   1082c:	40b787b3          	sub	a5,a5,a1
   10830:	40a7d793          	srai	a5,a5,0xa
   10834:	08f82e23          	sw	a5,156(a6)
   10838:	40a75713          	srai	a4,a4,0xa
   1083c:	02e82e23          	sw	a4,60(a6)
   10840:	032e0e33          	mul	t3,t3,s2
   10844:	01d888b3          	add	a7,a7,t4
   10848:	006887b3          	add	a5,a7,t1
   1084c:	40a7d793          	srai	a5,a5,0xa
   10850:	00f82e23          	sw	a5,28(a6)
   10854:	41130333          	sub	t1,t1,a7
   10858:	40a35313          	srai	t1,t1,0xa
   1085c:	0a682e23          	sw	t1,188(a6)
   10860:	01c686b3          	add	a3,a3,t3
   10864:	008687b3          	add	a5,a3,s0
   10868:	40d40433          	sub	s0,s0,a3
   1086c:	40a7d793          	srai	a5,a5,0xa
   10870:	40a45413          	srai	s0,s0,0xa
   10874:	fef82e23          	sw	a5,-4(a6)
   10878:	0c882e23          	sw	s0,220(a6)
   1087c:	beca14e3          	bne	s4,a2,10464 <stbi__idct_block+0x94>
   10880:	c69ff06f          	j	104e8 <stbi__idct_block+0x118>

00010884 <resample_row_1>:
   10884:	00058513          	mv	a0,a1
   10888:	00008067          	ret

0001088c <stbi__resample_row_v_2>:
   1088c:	02d05e63          	blez	a3,108c8 <stbi__resample_row_v_2+0x3c>
   10890:	00000713          	li	a4,0
   10894:	00e587b3          	add	a5,a1,a4
   10898:	0007c803          	lbu	a6,0(a5)
   1089c:	00e607b3          	add	a5,a2,a4
   108a0:	0007c883          	lbu	a7,0(a5)
   108a4:	00181793          	slli	a5,a6,0x1
   108a8:	010787b3          	add	a5,a5,a6
   108ac:	011787b3          	add	a5,a5,a7
   108b0:	00278793          	addi	a5,a5,2
   108b4:	00e50833          	add	a6,a0,a4
   108b8:	4027d793          	srai	a5,a5,0x2
   108bc:	00f80023          	sb	a5,0(a6)
   108c0:	00170713          	addi	a4,a4,1
   108c4:	fce698e3          	bne	a3,a4,10894 <stbi__resample_row_v_2+0x8>
   108c8:	00008067          	ret

000108cc <stbi__resample_row_hv_2>:
   108cc:	0005c703          	lbu	a4,0(a1)
   108d0:	00064803          	lbu	a6,0(a2)
   108d4:	00171793          	slli	a5,a4,0x1
   108d8:	00e787b3          	add	a5,a5,a4
   108dc:	010787b3          	add	a5,a5,a6
   108e0:	00278713          	addi	a4,a5,2
   108e4:	40275713          	srai	a4,a4,0x2
   108e8:	00100813          	li	a6,1
   108ec:	0ff77713          	zext.b	a4,a4
   108f0:	09068863          	beq	a3,a6,10980 <stbi__resample_row_hv_2+0xb4>
   108f4:	00e50023          	sb	a4,0(a0)
   108f8:	06d85c63          	bge	a6,a3,10970 <stbi__resample_row_hv_2+0xa4>
   108fc:	00158313          	addi	t1,a1,1
   10900:	00160613          	addi	a2,a2,1
   10904:	00150893          	addi	a7,a0,1
   10908:	00d585b3          	add	a1,a1,a3
   1090c:	00034703          	lbu	a4,0(t1)
   10910:	00064803          	lbu	a6,0(a2)
   10914:	00078e13          	mv	t3,a5
   10918:	00171793          	slli	a5,a4,0x1
   1091c:	00e787b3          	add	a5,a5,a4
   10920:	010787b3          	add	a5,a5,a6
   10924:	00179713          	slli	a4,a5,0x1
   10928:	001e1813          	slli	a6,t3,0x1
   1092c:	01c80833          	add	a6,a6,t3
   10930:	00f70733          	add	a4,a4,a5
   10934:	00f80833          	add	a6,a6,a5
   10938:	01c70733          	add	a4,a4,t3
   1093c:	00880813          	addi	a6,a6,8
   10940:	00870713          	addi	a4,a4,8
   10944:	40485813          	srai	a6,a6,0x4
   10948:	40475713          	srai	a4,a4,0x4
   1094c:	01088023          	sb	a6,0(a7)
   10950:	00e880a3          	sb	a4,1(a7)
   10954:	00130313          	addi	t1,t1,1
   10958:	00160613          	addi	a2,a2,1
   1095c:	00288893          	addi	a7,a7,2
   10960:	fab316e3          	bne	t1,a1,1090c <stbi__resample_row_hv_2+0x40>
   10964:	00278793          	addi	a5,a5,2
   10968:	4027d793          	srai	a5,a5,0x2
   1096c:	0ff7f713          	zext.b	a4,a5
   10970:	00169693          	slli	a3,a3,0x1
   10974:	00d506b3          	add	a3,a0,a3
   10978:	fee68fa3          	sb	a4,-1(a3)
   1097c:	00008067          	ret
   10980:	00e500a3          	sb	a4,1(a0)
   10984:	00e50023          	sb	a4,0(a0)
   10988:	00008067          	ret

0001098c <stbi__resample_row_generic>:
   1098c:	1ad05463          	blez	a3,10b34 <stbi__resample_row_generic+0x1a8>
   10990:	1ae05263          	blez	a4,10b34 <stbi__resample_row_generic+0x1a8>
   10994:	fe010113          	addi	sp,sp,-32
   10998:	00058613          	mv	a2,a1
   1099c:	00812e23          	sw	s0,28(sp)
   109a0:	00912c23          	sw	s1,24(sp)
   109a4:	ff010437          	lui	s0,0xff010
   109a8:	ffff04b7          	lui	s1,0xffff0
   109ac:	010003b7          	lui	t2,0x1000
   109b0:	01212a23          	sw	s2,20(sp)
   109b4:	01312823          	sw	s3,16(sp)
   109b8:	01412623          	sw	s4,12(sp)
   109bc:	01512423          	sw	s5,8(sp)
   109c0:	00050813          	mv	a6,a0
   109c4:	00e505b3          	add	a1,a0,a4
   109c8:	40a00eb3          	neg	t4,a0
   109cc:	00d60f33          	add	t5,a2,a3
   109d0:	fff70293          	addi	t0,a4,-1
   109d4:	00000e13          	li	t3,0
   109d8:	00a00f93          	li	t6,10
   109dc:	0ff48493          	addi	s1,s1,255 # ffff00ff <_rgmii_lvl2fifo+0xf0af00ff>
   109e0:	fff40413          	addi	s0,s0,-1 # ff00ffff <_rgmii_lvl2fifo+0xefb0ffff>
   109e4:	fff38393          	addi	t2,t2,-1 # ffffff <input_layer+0xafff>
   109e8:	00300913          	li	s2,3
   109ec:	125ffe63          	bgeu	t6,t0,10b28 <stbi__resample_row_generic+0x19c>
   109f0:	00160313          	addi	t1,a2,1
   109f4:	04687a63          	bgeu	a6,t1,10a48 <stbi__resample_row_generic+0xbc>
   109f8:	00080793          	mv	a5,a6
   109fc:	04b67663          	bgeu	a2,a1,10a48 <stbi__resample_row_generic+0xbc>
   10a00:	00064683          	lbu	a3,0(a2)
   10a04:	00178793          	addi	a5,a5,1
   10a08:	fed78fa3          	sb	a3,-1(a5)
   10a0c:	feb79ae3          	bne	a5,a1,10a00 <stbi__resample_row_generic+0x74>
   10a10:	00030613          	mv	a2,t1
   10a14:	00e80833          	add	a6,a6,a4
   10a18:	00ee0e33          	add	t3,t3,a4
   10a1c:	00e585b3          	add	a1,a1,a4
   10a20:	40ee8eb3          	sub	t4,t4,a4
   10a24:	fde314e3          	bne	t1,t5,109ec <stbi__resample_row_generic+0x60>
   10a28:	01c12403          	lw	s0,28(sp)
   10a2c:	01812483          	lw	s1,24(sp)
   10a30:	01412903          	lw	s2,20(sp)
   10a34:	01012983          	lw	s3,16(sp)
   10a38:	00c12a03          	lw	s4,12(sp)
   10a3c:	00812a83          	lw	s5,8(sp)
   10a40:	02010113          	addi	sp,sp,32
   10a44:	00008067          	ret
   10a48:	003ef793          	andi	a5,t4,3
   10a4c:	00000a13          	li	s4,0
   10a50:	02078863          	beqz	a5,10a80 <stbi__resample_row_generic+0xf4>
   10a54:	00064883          	lbu	a7,0(a2)
   10a58:	002ef693          	andi	a3,t4,2
   10a5c:	00100a13          	li	s4,1
   10a60:	01180023          	sb	a7,0(a6)
   10a64:	00068e63          	beqz	a3,10a80 <stbi__resample_row_generic+0xf4>
   10a68:	011800a3          	sb	a7,1(a6)
   10a6c:	00200a13          	li	s4,2
   10a70:	01279863          	bne	a5,s2,10a80 <stbi__resample_row_generic+0xf4>
   10a74:	00064683          	lbu	a3,0(a2)
   10a78:	00300a13          	li	s4,3
   10a7c:	00d80123          	sb	a3,2(a6)
   10a80:	00064883          	lbu	a7,0(a2)
   10a84:	40f709b3          	sub	s3,a4,a5
   10a88:	01c787b3          	add	a5,a5,t3
   10a8c:	00889a93          	slli	s5,a7,0x8
   10a90:	0098f6b3          	and	a3,a7,s1
   10a94:	0156e6b3          	or	a3,a3,s5
   10a98:	0086f6b3          	and	a3,a3,s0
   10a9c:	01089a93          	slli	s5,a7,0x10
   10aa0:	0156e6b3          	or	a3,a3,s5
   10aa4:	0076f6b3          	and	a3,a3,t2
   10aa8:	01889a93          	slli	s5,a7,0x18
   10aac:	00f507b3          	add	a5,a0,a5
   10ab0:	ffc9f893          	andi	a7,s3,-4
   10ab4:	0156e6b3          	or	a3,a3,s5
   10ab8:	00f888b3          	add	a7,a7,a5
   10abc:	00d7a023          	sw	a3,0(a5)
   10ac0:	00478793          	addi	a5,a5,4
   10ac4:	ff179ce3          	bne	a5,a7,10abc <stbi__resample_row_generic+0x130>
   10ac8:	ffc9f793          	andi	a5,s3,-4
   10acc:	0039f993          	andi	s3,s3,3
   10ad0:	014787b3          	add	a5,a5,s4
   10ad4:	f2098ee3          	beqz	s3,10a10 <stbi__resample_row_generic+0x84>
   10ad8:	00064983          	lbu	s3,0(a2)
   10adc:	01c506b3          	add	a3,a0,t3
   10ae0:	00f688b3          	add	a7,a3,a5
   10ae4:	01388023          	sb	s3,0(a7)
   10ae8:	00178893          	addi	a7,a5,1
   10aec:	f2e8d2e3          	bge	a7,a4,10a10 <stbi__resample_row_generic+0x84>
   10af0:	011688b3          	add	a7,a3,a7
   10af4:	01388023          	sb	s3,0(a7)
   10af8:	00278793          	addi	a5,a5,2
   10afc:	f0e7dae3          	bge	a5,a4,10a10 <stbi__resample_row_generic+0x84>
   10b00:	00064603          	lbu	a2,0(a2)
   10b04:	00f686b3          	add	a3,a3,a5
   10b08:	00e80833          	add	a6,a6,a4
   10b0c:	00c68023          	sb	a2,0(a3)
   10b10:	00ee0e33          	add	t3,t3,a4
   10b14:	00030613          	mv	a2,t1
   10b18:	00e585b3          	add	a1,a1,a4
   10b1c:	40ee8eb3          	sub	t4,t4,a4
   10b20:	ede316e3          	bne	t1,t5,109ec <stbi__resample_row_generic+0x60>
   10b24:	f05ff06f          	j	10a28 <stbi__resample_row_generic+0x9c>
   10b28:	00080793          	mv	a5,a6
   10b2c:	00160313          	addi	t1,a2,1
   10b30:	ed1ff06f          	j	10a00 <stbi__resample_row_generic+0x74>
   10b34:	00008067          	ret

00010b38 <stbi__YCbCr_to_RGB_row>:
   10b38:	14e05263          	blez	a4,10c7c <stbi__YCbCr_to_RGB_row+0x144>
   10b3c:	fe010113          	addi	sp,sp,-32
   10b40:	00812e23          	sw	s0,28(sp)
   10b44:	00912c23          	sw	s1,24(sp)
   10b48:	fffa8437          	lui	s0,0xfffa8
   10b4c:	001674b7          	lui	s1,0x167
   10b50:	fff493b7          	lui	t2,0xfff49
   10b54:	001c62b7          	lui	t0,0x1c6
   10b58:	01212a23          	sw	s2,20(sp)
   10b5c:	01312823          	sw	s3,16(sp)
   10b60:	01412623          	sw	s4,12(sp)
   10b64:	01512423          	sw	s5,8(sp)
   10b68:	00000f13          	li	t5,0
   10b6c:	00080a37          	lui	s4,0x80
   10b70:	f0048493          	addi	s1,s1,-256 # 166f00 <s4_pooling_layer+0x125cc0>
   10b74:	e0040413          	addi	s0,s0,-512 # fffa7e00 <_rgmii_lvl2fifo+0xf0aa7e00>
   10b78:	ffff09b7          	lui	s3,0xffff0
   10b7c:	30038393          	addi	t2,t2,768 # fff49300 <_rgmii_lvl2fifo+0xf0a49300>
   10b80:	a0028293          	addi	t0,t0,-1536 # 1c5a00 <s4_pooling_layer+0x1847c0>
   10b84:	0ff00f93          	li	t6,255
   10b88:	fff00913          	li	s2,-1
   10b8c:	0240006f          	j	10bb0 <stbi__YCbCr_to_RGB_row+0x78>
   10b90:	0ff87813          	zext.b	a6,a6
   10b94:	01d50023          	sb	t4,0(a0)
   10b98:	006500a3          	sb	t1,1(a0)
   10b9c:	01050123          	sb	a6,2(a0)
   10ba0:	012501a3          	sb	s2,3(a0)
   10ba4:	001f0f13          	addi	t5,t5,1
   10ba8:	00f50533          	add	a0,a0,a5
   10bac:	0be70863          	beq	a4,t5,10c5c <stbi__YCbCr_to_RGB_row+0x124>
   10bb0:	01e688b3          	add	a7,a3,t5
   10bb4:	0008c303          	lbu	t1,0(a7)
   10bb8:	01e60833          	add	a6,a2,t5
   10bbc:	00084803          	lbu	a6,0(a6)
   10bc0:	f8030313          	addi	t1,t1,-128
   10bc4:	02930e33          	mul	t3,t1,s1
   10bc8:	01e588b3          	add	a7,a1,t5
   10bcc:	f8080813          	addi	a6,a6,-128
   10bd0:	0008ca83          	lbu	s5,0(a7)
   10bd4:	014a9a93          	slli	s5,s5,0x14
   10bd8:	014a8ab3          	add	s5,s5,s4
   10bdc:	028808b3          	mul	a7,a6,s0
   10be0:	015e0e33          	add	t3,t3,s5
   10be4:	414e5e13          	srai	t3,t3,0x14
   10be8:	fffe4e93          	not	t4,t3
   10bec:	41fede93          	srai	t4,t4,0x1f
   10bf0:	0ffefe93          	zext.b	t4,t4
   10bf4:	02730333          	mul	t1,t1,t2
   10bf8:	0138f8b3          	and	a7,a7,s3
   10bfc:	02580833          	mul	a6,a6,t0
   10c00:	01530333          	add	t1,t1,s5
   10c04:	006888b3          	add	a7,a7,t1
   10c08:	4148d893          	srai	a7,a7,0x14
   10c0c:	01580833          	add	a6,a6,s5
   10c10:	41485813          	srai	a6,a6,0x14
   10c14:	01cfe463          	bltu	t6,t3,10c1c <stbi__YCbCr_to_RGB_row+0xe4>
   10c18:	0ffe7e93          	zext.b	t4,t3
   10c1c:	fff8c313          	not	t1,a7
   10c20:	41f35313          	srai	t1,t1,0x1f
   10c24:	0ff37313          	zext.b	t1,t1
   10c28:	011fe463          	bltu	t6,a7,10c30 <stbi__YCbCr_to_RGB_row+0xf8>
   10c2c:	0ff8f313          	zext.b	t1,a7
   10c30:	fff84893          	not	a7,a6
   10c34:	41f8d893          	srai	a7,a7,0x1f
   10c38:	f50ffce3          	bgeu	t6,a6,10b90 <stbi__YCbCr_to_RGB_row+0x58>
   10c3c:	0ff8f813          	zext.b	a6,a7
   10c40:	01d50023          	sb	t4,0(a0)
   10c44:	006500a3          	sb	t1,1(a0)
   10c48:	01050123          	sb	a6,2(a0)
   10c4c:	012501a3          	sb	s2,3(a0)
   10c50:	001f0f13          	addi	t5,t5,1
   10c54:	00f50533          	add	a0,a0,a5
   10c58:	f5e71ce3          	bne	a4,t5,10bb0 <stbi__YCbCr_to_RGB_row+0x78>
   10c5c:	01c12403          	lw	s0,28(sp)
   10c60:	01812483          	lw	s1,24(sp)
   10c64:	01412903          	lw	s2,20(sp)
   10c68:	01012983          	lw	s3,16(sp)
   10c6c:	00c12a03          	lw	s4,12(sp)
   10c70:	00812a83          	lw	s5,8(sp)
   10c74:	02010113          	addi	sp,sp,32
   10c78:	00008067          	ret
   10c7c:	00008067          	ret

00010c80 <stbi__high_bit>:
   10c80:	00050793          	mv	a5,a0
   10c84:	06050263          	beqz	a0,10ce8 <stbi__high_bit+0x68>
   10c88:	00010737          	lui	a4,0x10
   10c8c:	04e57663          	bgeu	a0,a4,10cd8 <stbi__high_bit+0x58>
   10c90:	00800693          	li	a3,8
   10c94:	00000513          	li	a0,0
   10c98:	0ff00713          	li	a4,255
   10c9c:	00f77663          	bgeu	a4,a5,10ca8 <stbi__high_bit+0x28>
   10ca0:	0087d793          	srli	a5,a5,0x8
   10ca4:	00068513          	mv	a0,a3
   10ca8:	00f00713          	li	a4,15
   10cac:	00f77663          	bgeu	a4,a5,10cb8 <stbi__high_bit+0x38>
   10cb0:	00450513          	addi	a0,a0,4
   10cb4:	0047d793          	srli	a5,a5,0x4
   10cb8:	00300713          	li	a4,3
   10cbc:	00f77663          	bgeu	a4,a5,10cc8 <stbi__high_bit+0x48>
   10cc0:	00250513          	addi	a0,a0,2
   10cc4:	0027d793          	srli	a5,a5,0x2
   10cc8:	fff78793          	addi	a5,a5,-1
   10ccc:	00f037b3          	snez	a5,a5
   10cd0:	00f50533          	add	a0,a0,a5
   10cd4:	00008067          	ret
   10cd8:	01055793          	srli	a5,a0,0x10
   10cdc:	01800693          	li	a3,24
   10ce0:	01000513          	li	a0,16
   10ce4:	fb5ff06f          	j	10c98 <stbi__high_bit+0x18>
   10ce8:	fff00513          	li	a0,-1
   10cec:	00008067          	ret

00010cf0 <stbi__out_gif_code>:
   10cf0:	ff010113          	addi	sp,sp,-16
   10cf4:	00259593          	slli	a1,a1,0x2
   10cf8:	00912223          	sw	s1,4(sp)
   10cfc:	000017b7          	lui	a5,0x1
   10d00:	00b504b3          	add	s1,a0,a1
   10d04:	00812423          	sw	s0,8(sp)
   10d08:	00112623          	sw	ra,12(sp)
   10d0c:	00f487b3          	add	a5,s1,a5
   10d10:	82879583          	lh	a1,-2008(a5) # 828 <_ZL22stbi__g_failure_reason+0x810>
   10d14:	00050413          	mv	s0,a0
   10d18:	0005c863          	bltz	a1,10d28 <stbi__out_gif_code+0x38>
   10d1c:	01059593          	slli	a1,a1,0x10
   10d20:	0105d593          	srli	a1,a1,0x10
   10d24:	fcdff0ef          	jal	ra,10cf0 <stbi__out_gif_code>
   10d28:	000097b7          	lui	a5,0x9
   10d2c:	00f407b3          	add	a5,s0,a5
   10d30:	84c7a703          	lw	a4,-1972(a5) # 884c <_ZL22stbi__g_failure_reason+0x8834>
   10d34:	8447a683          	lw	a3,-1980(a5)
   10d38:	0ed75263          	bge	a4,a3,10e1c <stbi__out_gif_code+0x12c>
   10d3c:	8487a683          	lw	a3,-1976(a5)
   10d40:	01042603          	lw	a2,16(s0)
   10d44:	000015b7          	lui	a1,0x1
   10d48:	00d706b3          	add	a3,a4,a3
   10d4c:	41f6d713          	srai	a4,a3,0x1f
   10d50:	00377713          	andi	a4,a4,3
   10d54:	00d70733          	add	a4,a4,a3
   10d58:	40275713          	srai	a4,a4,0x2
   10d5c:	00e60633          	add	a2,a2,a4
   10d60:	00b484b3          	add	s1,s1,a1
   10d64:	00100593          	li	a1,1
   10d68:	00842703          	lw	a4,8(s0)
   10d6c:	00b60023          	sb	a1,0(a2)
   10d70:	82b4c603          	lbu	a2,-2005(s1)
   10d74:	8287a783          	lw	a5,-2008(a5)
   10d78:	08000593          	li	a1,128
   10d7c:	00261613          	slli	a2,a2,0x2
   10d80:	00c787b3          	add	a5,a5,a2
   10d84:	0037c603          	lbu	a2,3(a5)
   10d88:	02c5f463          	bgeu	a1,a2,10db0 <stbi__out_gif_code+0xc0>
   10d8c:	0027c603          	lbu	a2,2(a5)
   10d90:	00d70733          	add	a4,a4,a3
   10d94:	00c70023          	sb	a2,0(a4) # 10000 <_ZL22stbi__g_failure_reason+0xffe8>
   10d98:	0017c683          	lbu	a3,1(a5)
   10d9c:	00d700a3          	sb	a3,1(a4)
   10da0:	0007c683          	lbu	a3,0(a5)
   10da4:	00d70123          	sb	a3,2(a4)
   10da8:	0037c783          	lbu	a5,3(a5)
   10dac:	00f701a3          	sb	a5,3(a4)
   10db0:	000097b7          	lui	a5,0x9
   10db4:	00f40533          	add	a0,s0,a5
   10db8:	84852783          	lw	a5,-1976(a0)
   10dbc:	84052703          	lw	a4,-1984(a0)
   10dc0:	00478793          	addi	a5,a5,4 # 9004 <_ZL22stbi__g_failure_reason+0x8fec>
   10dc4:	84f52423          	sw	a5,-1976(a0)
   10dc8:	04e7ca63          	blt	a5,a4,10e1c <stbi__out_gif_code+0x12c>
   10dcc:	84c52783          	lw	a5,-1972(a0)
   10dd0:	83052683          	lw	a3,-2000(a0)
   10dd4:	83852703          	lw	a4,-1992(a0)
   10dd8:	84452583          	lw	a1,-1980(a0)
   10ddc:	00d787b3          	add	a5,a5,a3
   10de0:	84e52423          	sw	a4,-1976(a0)
   10de4:	84f52623          	sw	a5,-1972(a0)
   10de8:	02b7ca63          	blt	a5,a1,10e1c <stbi__out_gif_code+0x12c>
   10dec:	82c52783          	lw	a5,-2004(a0)
   10df0:	02f05663          	blez	a5,10e1c <stbi__out_gif_code+0x12c>
   10df4:	85052683          	lw	a3,-1968(a0)
   10df8:	83c52603          	lw	a2,-1988(a0)
   10dfc:	00f696b3          	sll	a3,a3,a5
   10e00:	4016d713          	srai	a4,a3,0x1
   10e04:	00c70733          	add	a4,a4,a2
   10e08:	fff78793          	addi	a5,a5,-1
   10e0c:	82d52823          	sw	a3,-2000(a0)
   10e10:	84e52623          	sw	a4,-1972(a0)
   10e14:	82f52623          	sw	a5,-2004(a0)
   10e18:	fcb75ce3          	bge	a4,a1,10df0 <stbi__out_gif_code+0x100>
   10e1c:	00c12083          	lw	ra,12(sp)
   10e20:	00812403          	lw	s0,8(sp)
   10e24:	00412483          	lw	s1,4(sp)
   10e28:	01010113          	addi	sp,sp,16
   10e2c:	00008067          	ret

00010e30 <stbi__stdio_eof>:
   10e30:	ff010113          	addi	sp,sp,-16
   10e34:	00812423          	sw	s0,8(sp)
   10e38:	00112623          	sw	ra,12(sp)
   10e3c:	00050413          	mv	s0,a0
   10e40:	3ec140ef          	jal	ra,2522c <feof>
   10e44:	00050c63          	beqz	a0,10e5c <stbi__stdio_eof+0x2c>
   10e48:	00c12083          	lw	ra,12(sp)
   10e4c:	00812403          	lw	s0,8(sp)
   10e50:	00100513          	li	a0,1
   10e54:	01010113          	addi	sp,sp,16
   10e58:	00008067          	ret
   10e5c:	00040513          	mv	a0,s0
   10e60:	42c140ef          	jal	ra,2528c <ferror>
   10e64:	00c12083          	lw	ra,12(sp)
   10e68:	00812403          	lw	s0,8(sp)
   10e6c:	00a03533          	snez	a0,a0
   10e70:	01010113          	addi	sp,sp,16
   10e74:	00008067          	ret

00010e78 <stbi__stdio_skip>:
   10e78:	ff010113          	addi	sp,sp,-16
   10e7c:	00100613          	li	a2,1
   10e80:	00112623          	sw	ra,12(sp)
   10e84:	00812423          	sw	s0,8(sp)
   10e88:	00050413          	mv	s0,a0
   10e8c:	2d8150ef          	jal	ra,26164 <fseek>
   10e90:	00040513          	mv	a0,s0
   10e94:	780140ef          	jal	ra,25614 <fgetc>
   10e98:	fff00793          	li	a5,-1
   10e9c:	00f51a63          	bne	a0,a5,10eb0 <stbi__stdio_skip+0x38>
   10ea0:	00c12083          	lw	ra,12(sp)
   10ea4:	00812403          	lw	s0,8(sp)
   10ea8:	01010113          	addi	sp,sp,16
   10eac:	00008067          	ret
   10eb0:	00040593          	mv	a1,s0
   10eb4:	00812403          	lw	s0,8(sp)
   10eb8:	00c12083          	lw	ra,12(sp)
   10ebc:	01010113          	addi	sp,sp,16
   10ec0:	0d11706f          	j	28790 <ungetc>

00010ec4 <stbi__stdio_read>:
   10ec4:	00050693          	mv	a3,a0
   10ec8:	00058513          	mv	a0,a1
   10ecc:	00100593          	li	a1,1
   10ed0:	6351406f          	j	25d04 <fread>

00010ed4 <stbi__build_huffman>:
   10ed4:	fe010113          	addi	sp,sp,-32
   10ed8:	00812c23          	sw	s0,24(sp)
   10edc:	00112e23          	sw	ra,28(sp)
   10ee0:	00050413          	mv	s0,a0
   10ee4:	00912a23          	sw	s1,20(sp)
   10ee8:	01212823          	sw	s2,16(sp)
   10eec:	01312623          	sw	s3,12(sp)
   10ef0:	01412423          	sw	s4,8(sp)
   10ef4:	01512223          	sw	s5,4(sp)
   10ef8:	00100513          	li	a0,1
   10efc:	00000613          	li	a2,0
   10f00:	0ff00313          	li	t1,255
   10f04:	10000e13          	li	t3,256
   10f08:	0005a783          	lw	a5,0(a1) # 1000 <_ZL22stbi__g_failure_reason+0xfe8>
   10f0c:	04f05263          	blez	a5,10f50 <stbi__build_huffman+0x7c>
   10f10:	00c407b3          	add	a5,s0,a2
   10f14:	50a78023          	sb	a0,1280(a5)
   10f18:	0ec34063          	blt	t1,a2,10ff8 <stbi__build_huffman+0x124>
   10f1c:	40ce08b3          	sub	a7,t3,a2
   10f20:	00000793          	li	a5,0
   10f24:	00c0006f          	j	10f30 <stbi__build_huffman+0x5c>
   10f28:	50a70023          	sb	a0,1280(a4)
   10f2c:	0d178663          	beq	a5,a7,10ff8 <stbi__build_huffman+0x124>
   10f30:	0005a683          	lw	a3,0(a1)
   10f34:	00078813          	mv	a6,a5
   10f38:	00178793          	addi	a5,a5,1
   10f3c:	00c78733          	add	a4,a5,a2
   10f40:	00e40733          	add	a4,s0,a4
   10f44:	fed7c2e3          	blt	a5,a3,10f28 <stbi__build_huffman+0x54>
   10f48:	00160613          	addi	a2,a2,1
   10f4c:	01060633          	add	a2,a2,a6
   10f50:	00150513          	addi	a0,a0,1
   10f54:	0ff57513          	zext.b	a0,a0
   10f58:	01100793          	li	a5,17
   10f5c:	00458593          	addi	a1,a1,4
   10f60:	faf514e3          	bne	a0,a5,10f08 <stbi__build_huffman+0x34>
   10f64:	00c40633          	add	a2,s0,a2
   10f68:	50060023          	sb	zero,1280(a2)
   10f6c:	00000793          	li	a5,0
   10f70:	60840613          	addi	a2,s0,1544
   10f74:	00000493          	li	s1,0
   10f78:	00100713          	li	a4,1
   10f7c:	01000313          	li	t1,16
   10f80:	01100893          	li	a7,17
   10f84:	0200006f          	j	10fa4 <stbi__build_huffman+0xd0>
   10f88:	40e306b3          	sub	a3,t1,a4
   10f8c:	00d796b3          	sll	a3,a5,a3
   10f90:	00d62023          	sw	a3,0(a2)
   10f94:	00170713          	addi	a4,a4,1
   10f98:	00179793          	slli	a5,a5,0x1
   10f9c:	00460613          	addi	a2,a2,4
   10fa0:	09170663          	beq	a4,a7,1102c <stbi__build_huffman+0x158>
   10fa4:	40f485b3          	sub	a1,s1,a5
   10fa8:	04b62423          	sw	a1,72(a2)
   10fac:	009406b3          	add	a3,s0,s1
   10fb0:	5006c683          	lbu	a3,1280(a3)
   10fb4:	fce69ae3          	bne	a3,a4,10f88 <stbi__build_huffman+0xb4>
   10fb8:	00149493          	slli	s1,s1,0x1
   10fbc:	009406b3          	add	a3,s0,s1
   10fc0:	00078813          	mv	a6,a5
   10fc4:	00178793          	addi	a5,a5,1
   10fc8:	fff78513          	addi	a0,a5,-1
   10fcc:	00f584b3          	add	s1,a1,a5
   10fd0:	20a69023          	sh	a0,512(a3)
   10fd4:	00940533          	add	a0,s0,s1
   10fd8:	50054503          	lbu	a0,1280(a0)
   10fdc:	00268693          	addi	a3,a3,2
   10fe0:	fee500e3          	beq	a0,a4,10fc0 <stbi__build_huffman+0xec>
   10fe4:	00e85833          	srl	a6,a6,a4
   10fe8:	fa0800e3          	beqz	a6,10f88 <stbi__build_huffman+0xb4>
   10fec:	0003c7b7          	lui	a5,0x3c
   10ff0:	13478793          	addi	a5,a5,308 # 3c134 <_cmdr_inst_end+0xc>
   10ff4:	00c0006f          	j	11000 <stbi__build_huffman+0x12c>
   10ff8:	0003c7b7          	lui	a5,0x3c
   10ffc:	14878793          	addi	a5,a5,328 # 3c148 <_cmdr_inst_end+0x20>
   11000:	00f22c23          	sw	a5,24(tp) # 18 <_ZL22stbi__g_failure_reason>
   11004:	00000513          	li	a0,0
   11008:	01c12083          	lw	ra,28(sp)
   1100c:	01812403          	lw	s0,24(sp)
   11010:	01412483          	lw	s1,20(sp)
   11014:	01012903          	lw	s2,16(sp)
   11018:	00c12983          	lw	s3,12(sp)
   1101c:	00812a03          	lw	s4,8(sp)
   11020:	00412a83          	lw	s5,4(sp)
   11024:	02010113          	addi	sp,sp,32
   11028:	00008067          	ret
   1102c:	fff00793          	li	a5,-1
   11030:	64f42423          	sw	a5,1608(s0)
   11034:	20000613          	li	a2,512
   11038:	0ff00593          	li	a1,255
   1103c:	00040513          	mv	a0,s0
   11040:	228160ef          	jal	ra,27268 <memset>
   11044:	20040993          	addi	s3,s0,512
   11048:	00000913          	li	s2,0
   1104c:	00900a13          	li	s4,9
   11050:	00100a93          	li	s5,1
   11054:	00049a63          	bnez	s1,11068 <stbi__build_huffman+0x194>
   11058:	03c0006f          	j	11094 <stbi__build_huffman+0x1c0>
   1105c:	00190913          	addi	s2,s2,1 # 1010001 <input_layer+0x1b001>
   11060:	00298993          	addi	s3,s3,2 # ffff0002 <_rgmii_lvl2fifo+0xf0af0002>
   11064:	03248863          	beq	s1,s2,11094 <stbi__build_huffman+0x1c0>
   11068:	012407b3          	add	a5,s0,s2
   1106c:	5007c783          	lbu	a5,1280(a5)
   11070:	fefa46e3          	blt	s4,a5,1105c <stbi__build_huffman+0x188>
   11074:	0009d503          	lhu	a0,0(s3)
   11078:	40fa07b3          	sub	a5,s4,a5
   1107c:	00fa9633          	sll	a2,s5,a5
   11080:	00f51533          	sll	a0,a0,a5
   11084:	0ff97593          	zext.b	a1,s2
   11088:	00a40533          	add	a0,s0,a0
   1108c:	1dc160ef          	jal	ra,27268 <memset>
   11090:	fcdff06f          	j	1105c <stbi__build_huffman+0x188>
   11094:	00100513          	li	a0,1
   11098:	f71ff06f          	j	11008 <stbi__build_huffman+0x134>

0001109c <stbi__getn>:
   1109c:	01052703          	lw	a4,16(a0)
   110a0:	ff010113          	addi	sp,sp,-16
   110a4:	00812423          	sw	s0,8(sp)
   110a8:	00912223          	sw	s1,4(sp)
   110ac:	00112623          	sw	ra,12(sp)
   110b0:	01212023          	sw	s2,0(sp)
   110b4:	0b052803          	lw	a6,176(a0)
   110b8:	0ac52683          	lw	a3,172(a0)
   110bc:	00050413          	mv	s0,a0
   110c0:	00058793          	mv	a5,a1
   110c4:	00060493          	mv	s1,a2
   110c8:	00070663          	beqz	a4,110d4 <stbi__getn+0x38>
   110cc:	40d80933          	sub	s2,a6,a3
   110d0:	06c94063          	blt	s2,a2,11130 <stbi__getn+0x94>
   110d4:	00968733          	add	a4,a3,s1
   110d8:	00000513          	li	a0,0
   110dc:	00e87e63          	bgeu	a6,a4,110f8 <stbi__getn+0x5c>
   110e0:	00c12083          	lw	ra,12(sp)
   110e4:	00812403          	lw	s0,8(sp)
   110e8:	00412483          	lw	s1,4(sp)
   110ec:	00012903          	lw	s2,0(sp)
   110f0:	01010113          	addi	sp,sp,16
   110f4:	00008067          	ret
   110f8:	00048613          	mv	a2,s1
   110fc:	00078513          	mv	a0,a5
   11100:	00068593          	mv	a1,a3
   11104:	7c1150ef          	jal	ra,270c4 <memcpy>
   11108:	0ac42783          	lw	a5,172(s0)
   1110c:	00c12083          	lw	ra,12(sp)
   11110:	00012903          	lw	s2,0(sp)
   11114:	009787b3          	add	a5,a5,s1
   11118:	0af42623          	sw	a5,172(s0)
   1111c:	00812403          	lw	s0,8(sp)
   11120:	00412483          	lw	s1,4(sp)
   11124:	00100513          	li	a0,1
   11128:	01010113          	addi	sp,sp,16
   1112c:	00008067          	ret
   11130:	00090613          	mv	a2,s2
   11134:	00068593          	mv	a1,a3
   11138:	00078513          	mv	a0,a5
   1113c:	789150ef          	jal	ra,270c4 <memcpy>
   11140:	00050793          	mv	a5,a0
   11144:	01042703          	lw	a4,16(s0)
   11148:	01c42503          	lw	a0,28(s0)
   1114c:	412484b3          	sub	s1,s1,s2
   11150:	012785b3          	add	a1,a5,s2
   11154:	00048613          	mv	a2,s1
   11158:	000700e7          	jalr	a4
   1115c:	0b042783          	lw	a5,176(s0)
   11160:	00c12083          	lw	ra,12(sp)
   11164:	40a484b3          	sub	s1,s1,a0
   11168:	0af42623          	sw	a5,172(s0)
   1116c:	00812403          	lw	s0,8(sp)
   11170:	00012903          	lw	s2,0(sp)
   11174:	0014b513          	seqz	a0,s1
   11178:	00412483          	lw	s1,4(sp)
   1117c:	01010113          	addi	sp,sp,16
   11180:	00008067          	ret

00011184 <stbi__vertical_flip>:
   11184:	81010113          	addi	sp,sp,-2032
   11188:	7d712623          	sw	s7,1996(sp)
   1118c:	7d812423          	sw	s8,1992(sp)
   11190:	7e112623          	sw	ra,2028(sp)
   11194:	7e812423          	sw	s0,2024(sp)
   11198:	7e912223          	sw	s1,2020(sp)
   1119c:	7f212023          	sw	s2,2016(sp)
   111a0:	7d312e23          	sw	s3,2012(sp)
   111a4:	7d412c23          	sw	s4,2008(sp)
   111a8:	7d512a23          	sw	s5,2004(sp)
   111ac:	7d612823          	sw	s6,2000(sp)
   111b0:	7d912223          	sw	s9,1988(sp)
   111b4:	40165c13          	srai	s8,a2,0x1
   111b8:	02d58bb3          	mul	s7,a1,a3
   111bc:	fc010113          	addi	sp,sp,-64
   111c0:	09805663          	blez	s8,1124c <stbi__vertical_flip+0xc8>
   111c4:	080b8463          	beqz	s7,1124c <stbi__vertical_flip+0xc8>
   111c8:	fff60a93          	addi	s5,a2,-1
   111cc:	00001a37          	lui	s4,0x1
   111d0:	00050b13          	mv	s6,a0
   111d4:	00000c93          	li	s9,0
   111d8:	800a0a13          	addi	s4,s4,-2048 # 800 <_ZL22stbi__g_failure_reason+0x7e8>
   111dc:	037a8ab3          	mul	s5,s5,s7
   111e0:	01550ab3          	add	s5,a0,s5
   111e4:	000b0993          	mv	s3,s6
   111e8:	000a8913          	mv	s2,s5
   111ec:	000b8493          	mv	s1,s7
   111f0:	00098593          	mv	a1,s3
   111f4:	00010513          	mv	a0,sp
   111f8:	00048413          	mv	s0,s1
   111fc:	009a7463          	bgeu	s4,s1,11204 <stbi__vertical_flip+0x80>
   11200:	000a0413          	mv	s0,s4
   11204:	00040613          	mv	a2,s0
   11208:	6bd150ef          	jal	ra,270c4 <memcpy>
   1120c:	00090593          	mv	a1,s2
   11210:	00040613          	mv	a2,s0
   11214:	00098513          	mv	a0,s3
   11218:	6ad150ef          	jal	ra,270c4 <memcpy>
   1121c:	00090513          	mv	a0,s2
   11220:	00040613          	mv	a2,s0
   11224:	00010593          	mv	a1,sp
   11228:	408484b3          	sub	s1,s1,s0
   1122c:	699150ef          	jal	ra,270c4 <memcpy>
   11230:	008989b3          	add	s3,s3,s0
   11234:	00890933          	add	s2,s2,s0
   11238:	fa049ce3          	bnez	s1,111f0 <stbi__vertical_flip+0x6c>
   1123c:	001c8c93          	addi	s9,s9,1
   11240:	017b0b33          	add	s6,s6,s7
   11244:	417a8ab3          	sub	s5,s5,s7
   11248:	f98c9ee3          	bne	s9,s8,111e4 <stbi__vertical_flip+0x60>
   1124c:	04010113          	addi	sp,sp,64
   11250:	7ec12083          	lw	ra,2028(sp)
   11254:	7e812403          	lw	s0,2024(sp)
   11258:	7e412483          	lw	s1,2020(sp)
   1125c:	7e012903          	lw	s2,2016(sp)
   11260:	7dc12983          	lw	s3,2012(sp)
   11264:	7d812a03          	lw	s4,2008(sp)
   11268:	7d412a83          	lw	s5,2004(sp)
   1126c:	7d012b03          	lw	s6,2000(sp)
   11270:	7cc12b83          	lw	s7,1996(sp)
   11274:	7c812c03          	lw	s8,1992(sp)
   11278:	7c412c83          	lw	s9,1988(sp)
   1127c:	7f010113          	addi	sp,sp,2032
   11280:	00008067          	ret

00011284 <stbi__hdr_convert>:
   11284:	fe010113          	addi	sp,sp,-32
   11288:	00812c23          	sw	s0,24(sp)
   1128c:	00912a23          	sw	s1,20(sp)
   11290:	01212823          	sw	s2,16(sp)
   11294:	00112e23          	sw	ra,28(sp)
   11298:	01312623          	sw	s3,12(sp)
   1129c:	01412423          	sw	s4,8(sp)
   112a0:	01512223          	sw	s5,4(sp)
   112a4:	00058913          	mv	s2,a1
   112a8:	0035c583          	lbu	a1,3(a1)
   112ac:	00050493          	mv	s1,a0
   112b0:	00060413          	mv	s0,a2
   112b4:	06059c63          	bnez	a1,1132c <stbi__hdr_convert+0xa8>
   112b8:	00300793          	li	a5,3
   112bc:	04f60e63          	beq	a2,a5,11318 <stbi__hdr_convert+0x94>
   112c0:	04c7c463          	blt	a5,a2,11308 <stbi__hdr_convert+0x84>
   112c4:	00100793          	li	a5,1
   112c8:	00f60a63          	beq	a2,a5,112dc <stbi__hdr_convert+0x58>
   112cc:	00200793          	li	a5,2
   112d0:	00f61a63          	bne	a2,a5,112e4 <stbi__hdr_convert+0x60>
   112d4:	9101a783          	lw	a5,-1776(gp) # 40770 <__SDATA_BEGIN__+0x110>
   112d8:	00f52223          	sw	a5,4(a0)
   112dc:	00000793          	li	a5,0
   112e0:	00f4a023          	sw	a5,0(s1)
   112e4:	01c12083          	lw	ra,28(sp)
   112e8:	01812403          	lw	s0,24(sp)
   112ec:	01412483          	lw	s1,20(sp)
   112f0:	01012903          	lw	s2,16(sp)
   112f4:	00c12983          	lw	s3,12(sp)
   112f8:	00812a03          	lw	s4,8(sp)
   112fc:	00412a83          	lw	s5,4(sp)
   11300:	02010113          	addi	sp,sp,32
   11304:	00008067          	ret
   11308:	00400793          	li	a5,4
   1130c:	fcf61ce3          	bne	a2,a5,112e4 <stbi__hdr_convert+0x60>
   11310:	9101a783          	lw	a5,-1776(gp) # 40770 <__SDATA_BEGIN__+0x110>
   11314:	00f52623          	sw	a5,12(a0)
   11318:	00000793          	li	a5,0
   1131c:	00f4a423          	sw	a5,8(s1)
   11320:	00f4a223          	sw	a5,4(s1)
   11324:	00f4a023          	sw	a5,0(s1)
   11328:	fbdff06f          	j	112e4 <stbi__hdr_convert+0x60>
   1132c:	9101aa03          	lw	s4,-1776(gp) # 40770 <__SDATA_BEGIN__+0x110>
   11330:	f7858593          	addi	a1,a1,-136
   11334:	00200a93          	li	s5,2
   11338:	000a0513          	mv	a0,s4
   1133c:	1c1160ef          	jal	ra,27cfc <ldexpf>
   11340:	00050993          	mv	s3,a0
   11344:	028ace63          	blt	s5,s0,11380 <stbi__hdr_convert+0xfc>
   11348:	00194703          	lbu	a4,1(s2)
   1134c:	00094783          	lbu	a5,0(s2)
   11350:	00294503          	lbu	a0,2(s2)
   11354:	00e787b3          	add	a5,a5,a4
   11358:	00a78533          	add	a0,a5,a0
   1135c:	10c290ef          	jal	ra,3a468 <__floatsisf>
   11360:	00098593          	mv	a1,s3
   11364:	015280ef          	jal	ra,39b78 <__mulsf3>
   11368:	9141a583          	lw	a1,-1772(gp) # 40774 <__SDATA_BEGIN__+0x114>
   1136c:	258280ef          	jal	ra,395c4 <__divsf3>
   11370:	00a4a023          	sw	a0,0(s1)
   11374:	f75418e3          	bne	s0,s5,112e4 <stbi__hdr_convert+0x60>
   11378:	0144a223          	sw	s4,4(s1)
   1137c:	f69ff06f          	j	112e4 <stbi__hdr_convert+0x60>
   11380:	00094503          	lbu	a0,0(s2)
   11384:	0e4290ef          	jal	ra,3a468 <__floatsisf>
   11388:	00098593          	mv	a1,s3
   1138c:	7ec280ef          	jal	ra,39b78 <__mulsf3>
   11390:	00a4a023          	sw	a0,0(s1)
   11394:	00194503          	lbu	a0,1(s2)
   11398:	0d0290ef          	jal	ra,3a468 <__floatsisf>
   1139c:	00098593          	mv	a1,s3
   113a0:	7d8280ef          	jal	ra,39b78 <__mulsf3>
   113a4:	00a4a223          	sw	a0,4(s1)
   113a8:	00294503          	lbu	a0,2(s2)
   113ac:	0bc290ef          	jal	ra,3a468 <__floatsisf>
   113b0:	00098593          	mv	a1,s3
   113b4:	7c4280ef          	jal	ra,39b78 <__mulsf3>
   113b8:	00a4a423          	sw	a0,8(s1)
   113bc:	00400793          	li	a5,4
   113c0:	f2f412e3          	bne	s0,a5,112e4 <stbi__hdr_convert+0x60>
   113c4:	0144a623          	sw	s4,12(s1)
   113c8:	f1dff06f          	j	112e4 <stbi__hdr_convert+0x60>

000113cc <stbi__skip.part.0>:
   113cc:	01052683          	lw	a3,16(a0)
   113d0:	0ac52703          	lw	a4,172(a0)
   113d4:	00050793          	mv	a5,a0
   113d8:	00068863          	beqz	a3,113e8 <stbi__skip.part.0+0x1c>
   113dc:	0b052603          	lw	a2,176(a0)
   113e0:	40e606b3          	sub	a3,a2,a4
   113e4:	00b6c863          	blt	a3,a1,113f4 <stbi__skip.part.0+0x28>
   113e8:	00b70733          	add	a4,a4,a1
   113ec:	0ae7a623          	sw	a4,172(a5)
   113f0:	00008067          	ret
   113f4:	01452703          	lw	a4,20(a0)
   113f8:	01c52503          	lw	a0,28(a0)
   113fc:	40d585b3          	sub	a1,a1,a3
   11400:	0ac7a623          	sw	a2,172(a5)
   11404:	00070067          	jr	a4

00011408 <stbi__resample_row_h_2>:
   11408:	00100793          	li	a5,1
   1140c:	0005c703          	lbu	a4,0(a1)
   11410:	0cf68063          	beq	a3,a5,114d0 <stbi__resample_row_h_2+0xc8>
   11414:	00e50023          	sb	a4,0(a0)
   11418:	0015c603          	lbu	a2,1(a1)
   1141c:	00171793          	slli	a5,a4,0x1
   11420:	00e787b3          	add	a5,a5,a4
   11424:	00c787b3          	add	a5,a5,a2
   11428:	00278793          	addi	a5,a5,2
   1142c:	4027d793          	srai	a5,a5,0x2
   11430:	00f500a3          	sb	a5,1(a0)
   11434:	00200793          	li	a5,2
   11438:	fff68e13          	addi	t3,a3,-1
   1143c:	0ad7d063          	bge	a5,a3,114dc <stbi__resample_row_h_2+0xd4>
   11440:	ffe68313          	addi	t1,a3,-2
   11444:	00058713          	mv	a4,a1
   11448:	00250813          	addi	a6,a0,2
   1144c:	00b30333          	add	t1,t1,a1
   11450:	00174883          	lbu	a7,1(a4)
   11454:	00074603          	lbu	a2,0(a4)
   11458:	00170713          	addi	a4,a4,1
   1145c:	00189793          	slli	a5,a7,0x1
   11460:	011787b3          	add	a5,a5,a7
   11464:	00278793          	addi	a5,a5,2
   11468:	00f60633          	add	a2,a2,a5
   1146c:	40265613          	srai	a2,a2,0x2
   11470:	00c80023          	sb	a2,0(a6)
   11474:	00174603          	lbu	a2,1(a4)
   11478:	00280813          	addi	a6,a6,2
   1147c:	00f607b3          	add	a5,a2,a5
   11480:	4027d793          	srai	a5,a5,0x2
   11484:	fef80fa3          	sb	a5,-1(a6)
   11488:	fc6714e3          	bne	a4,t1,11450 <stbi__resample_row_h_2+0x48>
   1148c:	001e1713          	slli	a4,t3,0x1
   11490:	00170613          	addi	a2,a4,1
   11494:	00d586b3          	add	a3,a1,a3
   11498:	ffe6c683          	lbu	a3,-2(a3)
   1149c:	01c585b3          	add	a1,a1,t3
   114a0:	0005c803          	lbu	a6,0(a1)
   114a4:	00169793          	slli	a5,a3,0x1
   114a8:	00d787b3          	add	a5,a5,a3
   114ac:	010787b3          	add	a5,a5,a6
   114b0:	00278793          	addi	a5,a5,2
   114b4:	00e50733          	add	a4,a0,a4
   114b8:	4027d793          	srai	a5,a5,0x2
   114bc:	00f70023          	sb	a5,0(a4)
   114c0:	0005c703          	lbu	a4,0(a1)
   114c4:	00c507b3          	add	a5,a0,a2
   114c8:	00e78023          	sb	a4,0(a5)
   114cc:	00008067          	ret
   114d0:	00e500a3          	sb	a4,1(a0)
   114d4:	00e50023          	sb	a4,0(a0)
   114d8:	00008067          	ret
   114dc:	00300613          	li	a2,3
   114e0:	00200713          	li	a4,2
   114e4:	fb1ff06f          	j	11494 <stbi__resample_row_h_2+0x8c>

000114e8 <stbi__create_png_alpha_expand8>:
   114e8:	00100713          	li	a4,1
   114ec:	fff60793          	addi	a5,a2,-1
   114f0:	04e68a63          	beq	a3,a4,11544 <stbi__create_png_alpha_expand8+0x5c>
   114f4:	0407c663          	bltz	a5,11540 <stbi__create_png_alpha_expand8+0x58>
   114f8:	00161713          	slli	a4,a2,0x1
   114fc:	00c70733          	add	a4,a4,a2
   11500:	ffd70713          	addi	a4,a4,-3
   11504:	00261613          	slli	a2,a2,0x2
   11508:	00e585b3          	add	a1,a1,a4
   1150c:	00c50533          	add	a0,a0,a2
   11510:	fff00713          	li	a4,-1
   11514:	fee50fa3          	sb	a4,-1(a0)
   11518:	0025c683          	lbu	a3,2(a1)
   1151c:	ffd58593          	addi	a1,a1,-3
   11520:	fff78793          	addi	a5,a5,-1
   11524:	fed50f23          	sb	a3,-2(a0)
   11528:	0045c683          	lbu	a3,4(a1)
   1152c:	ffc50513          	addi	a0,a0,-4
   11530:	00d500a3          	sb	a3,1(a0)
   11534:	0035c683          	lbu	a3,3(a1)
   11538:	00d50023          	sb	a3,0(a0)
   1153c:	fce79ce3          	bne	a5,a4,11514 <stbi__create_png_alpha_expand8+0x2c>
   11540:	00008067          	ret
   11544:	00161613          	slli	a2,a2,0x1
   11548:	00c50533          	add	a0,a0,a2
   1154c:	fff00713          	li	a4,-1
   11550:	fe07c8e3          	bltz	a5,11540 <stbi__create_png_alpha_expand8+0x58>
   11554:	fee50fa3          	sb	a4,-1(a0)
   11558:	00f586b3          	add	a3,a1,a5
   1155c:	0006c683          	lbu	a3,0(a3)
   11560:	fff78793          	addi	a5,a5,-1
   11564:	ffe50513          	addi	a0,a0,-2
   11568:	00d50023          	sb	a3,0(a0)
   1156c:	fee794e3          	bne	a5,a4,11554 <stbi__create_png_alpha_expand8+0x6c>
   11570:	00008067          	ret

00011574 <stbi__convert_format16.part.0>:
   11574:	02e687b3          	mul	a5,a3,a4
   11578:	fd010113          	addi	sp,sp,-48
   1157c:	01312e23          	sw	s3,28(sp)
   11580:	00050993          	mv	s3,a0
   11584:	02812423          	sw	s0,40(sp)
   11588:	02912223          	sw	s1,36(sp)
   1158c:	01412c23          	sw	s4,24(sp)
   11590:	01512a23          	sw	s5,20(sp)
   11594:	02112623          	sw	ra,44(sp)
   11598:	03212023          	sw	s2,32(sp)
   1159c:	02c78533          	mul	a0,a5,a2
   115a0:	01612823          	sw	s6,16(sp)
   115a4:	01712623          	sw	s7,12(sp)
   115a8:	00068493          	mv	s1,a3
   115ac:	00070413          	mv	s0,a4
   115b0:	00060a93          	mv	s5,a2
   115b4:	00058a13          	mv	s4,a1
   115b8:	00151513          	slli	a0,a0,0x1
   115bc:	368150ef          	jal	ra,26924 <malloc>
   115c0:	52050463          	beqz	a0,11ae8 <stbi__convert_format16.part.0+0x574>
   115c4:	00050913          	mv	s2,a0
   115c8:	0a805a63          	blez	s0,1167c <stbi__convert_format16.part.0+0x108>
   115cc:	029a0733          	mul	a4,s4,s1
   115d0:	003a1f13          	slli	t5,s4,0x3
   115d4:	015f0f33          	add	t5,t5,s5
   115d8:	ff6f0f13          	addi	t5,t5,-10
   115dc:	0003c7b7          	lui	a5,0x3c
   115e0:	002f1693          	slli	a3,t5,0x2
   115e4:	16478793          	addi	a5,a5,356 # 3c164 <_cmdr_inst_end+0x3c>
   115e8:	00050813          	mv	a6,a0
   115ec:	00098893          	mv	a7,s3
   115f0:	00000313          	li	t1,0
   115f4:	029a8e33          	mul	t3,s5,s1
   115f8:	00171713          	slli	a4,a4,0x1
   115fc:	01900513          	li	a0,25
   11600:	00f686b3          	add	a3,a3,a5
   11604:	001e1e13          	slli	t3,t3,0x1
   11608:	00088613          	mv	a2,a7
   1160c:	00080793          	mv	a5,a6
   11610:	01e56663          	bltu	a0,t5,1161c <stbi__convert_format16.part.0+0xa8>
   11614:	0006a583          	lw	a1,0(a3)
   11618:	00058067          	jr	a1
   1161c:	00098513          	mv	a0,s3
   11620:	310150ef          	jal	ra,26930 <free>
   11624:	00090513          	mv	a0,s2
   11628:	308150ef          	jal	ra,26930 <free>
   1162c:	0003c7b7          	lui	a5,0x3c
   11630:	15878793          	addi	a5,a5,344 # 3c158 <_cmdr_inst_end+0x30>
   11634:	00f22c23          	sw	a5,24(tp) # 18 <_ZL22stbi__g_failure_reason>
   11638:	00000913          	li	s2,0
   1163c:	02c12083          	lw	ra,44(sp)
   11640:	02812403          	lw	s0,40(sp)
   11644:	02412483          	lw	s1,36(sp)
   11648:	01c12983          	lw	s3,28(sp)
   1164c:	01812a03          	lw	s4,24(sp)
   11650:	01412a83          	lw	s5,20(sp)
   11654:	01012b03          	lw	s6,16(sp)
   11658:	00c12b83          	lw	s7,12(sp)
   1165c:	00090513          	mv	a0,s2
   11660:	02012903          	lw	s2,32(sp)
   11664:	03010113          	addi	sp,sp,48
   11668:	00008067          	ret
   1166c:	00130313          	addi	t1,t1,1
   11670:	00e888b3          	add	a7,a7,a4
   11674:	01c80833          	add	a6,a6,t3
   11678:	f88318e3          	bne	t1,s0,11608 <stbi__convert_format16.part.0+0x94>
   1167c:	00098513          	mv	a0,s3
   11680:	2b0150ef          	jal	ra,26930 <free>
   11684:	fb9ff06f          	j	1163c <stbi__convert_format16.part.0+0xc8>
   11688:	fff48e93          	addi	t4,s1,-1
   1168c:	fff00093          	li	ra,-1
   11690:	000e8593          	mv	a1,t4
   11694:	fc0ecce3          	bltz	t4,1166c <stbi__convert_format16.part.0+0xf8>
   11698:	00065383          	lhu	t2,0(a2)
   1169c:	00265283          	lhu	t0,2(a2)
   116a0:	00465f83          	lhu	t6,4(a2)
   116a4:	00779023          	sh	t2,0(a5)
   116a8:	00579123          	sh	t0,2(a5)
   116ac:	01f79223          	sh	t6,4(a5)
   116b0:	fff58593          	addi	a1,a1,-1
   116b4:	00860613          	addi	a2,a2,8
   116b8:	00678793          	addi	a5,a5,6
   116bc:	fc159ee3          	bne	a1,ra,11698 <stbi__convert_format16.part.0+0x124>
   116c0:	00130313          	addi	t1,t1,1
   116c4:	00e888b3          	add	a7,a7,a4
   116c8:	01c80833          	add	a6,a6,t3
   116cc:	fa6408e3          	beq	s0,t1,1167c <stbi__convert_format16.part.0+0x108>
   116d0:	00088613          	mv	a2,a7
   116d4:	00080793          	mv	a5,a6
   116d8:	fb9ff06f          	j	11690 <stbi__convert_format16.part.0+0x11c>
   116dc:	fff48e93          	addi	t4,s1,-1
   116e0:	04d00a13          	li	s4,77
   116e4:	09600093          	li	ra,150
   116e8:	fff00393          	li	t2,-1
   116ec:	000e8293          	mv	t0,t4
   116f0:	f60ecee3          	bltz	t4,1166c <stbi__convert_format16.part.0+0xf8>
   116f4:	00065583          	lhu	a1,0(a2)
   116f8:	00265a83          	lhu	s5,2(a2)
   116fc:	00465b03          	lhu	s6,4(a2)
   11700:	034585b3          	mul	a1,a1,s4
   11704:	00665b83          	lhu	s7,6(a2)
   11708:	003b1f93          	slli	t6,s6,0x3
   1170c:	416f8fb3          	sub	t6,t6,s6
   11710:	002f9f93          	slli	t6,t6,0x2
   11714:	016f8fb3          	add	t6,t6,s6
   11718:	01779123          	sh	s7,2(a5)
   1171c:	00478793          	addi	a5,a5,4
   11720:	fff28293          	addi	t0,t0,-1
   11724:	00860613          	addi	a2,a2,8
   11728:	021a8ab3          	mul	s5,s5,ra
   1172c:	015585b3          	add	a1,a1,s5
   11730:	01f585b3          	add	a1,a1,t6
   11734:	4085d593          	srai	a1,a1,0x8
   11738:	feb79e23          	sh	a1,-4(a5)
   1173c:	fa729ce3          	bne	t0,t2,116f4 <stbi__convert_format16.part.0+0x180>
   11740:	00130313          	addi	t1,t1,1
   11744:	00e888b3          	add	a7,a7,a4
   11748:	01c80833          	add	a6,a6,t3
   1174c:	f28308e3          	beq	t1,s0,1167c <stbi__convert_format16.part.0+0x108>
   11750:	00088613          	mv	a2,a7
   11754:	00080793          	mv	a5,a6
   11758:	f95ff06f          	j	116ec <stbi__convert_format16.part.0+0x178>
   1175c:	fff48e93          	addi	t4,s1,-1
   11760:	04d00a13          	li	s4,77
   11764:	09600093          	li	ra,150
   11768:	fff00393          	li	t2,-1
   1176c:	000e8293          	mv	t0,t4
   11770:	ee0ecee3          	bltz	t4,1166c <stbi__convert_format16.part.0+0xf8>
   11774:	00065583          	lhu	a1,0(a2)
   11778:	00265a83          	lhu	s5,2(a2)
   1177c:	00465b03          	lhu	s6,4(a2)
   11780:	034585b3          	mul	a1,a1,s4
   11784:	00278793          	addi	a5,a5,2
   11788:	003b1f93          	slli	t6,s6,0x3
   1178c:	416f8fb3          	sub	t6,t6,s6
   11790:	002f9f93          	slli	t6,t6,0x2
   11794:	016f8fb3          	add	t6,t6,s6
   11798:	fff28293          	addi	t0,t0,-1
   1179c:	00860613          	addi	a2,a2,8
   117a0:	021a8ab3          	mul	s5,s5,ra
   117a4:	015585b3          	add	a1,a1,s5
   117a8:	01f585b3          	add	a1,a1,t6
   117ac:	4085d593          	srai	a1,a1,0x8
   117b0:	feb79f23          	sh	a1,-2(a5)
   117b4:	fc7290e3          	bne	t0,t2,11774 <stbi__convert_format16.part.0+0x200>
   117b8:	00130313          	addi	t1,t1,1
   117bc:	00e888b3          	add	a7,a7,a4
   117c0:	01c80833          	add	a6,a6,t3
   117c4:	ea830ce3          	beq	t1,s0,1167c <stbi__convert_format16.part.0+0x108>
   117c8:	00088613          	mv	a2,a7
   117cc:	00080793          	mv	a5,a6
   117d0:	f9dff06f          	j	1176c <stbi__convert_format16.part.0+0x1f8>
   117d4:	fff48e93          	addi	t4,s1,-1
   117d8:	fff00f93          	li	t6,-1
   117dc:	000e8593          	mv	a1,t4
   117e0:	e80ec6e3          	bltz	t4,1166c <stbi__convert_format16.part.0+0xf8>
   117e4:	00065083          	lhu	ra,0(a2)
   117e8:	00265383          	lhu	t2,2(a2)
   117ec:	00465283          	lhu	t0,4(a2)
   117f0:	00179023          	sh	ra,0(a5)
   117f4:	00779123          	sh	t2,2(a5)
   117f8:	00579223          	sh	t0,4(a5)
   117fc:	01f79323          	sh	t6,6(a5)
   11800:	fff58593          	addi	a1,a1,-1
   11804:	00660613          	addi	a2,a2,6
   11808:	00878793          	addi	a5,a5,8
   1180c:	fdf59ce3          	bne	a1,t6,117e4 <stbi__convert_format16.part.0+0x270>
   11810:	00130313          	addi	t1,t1,1
   11814:	00e888b3          	add	a7,a7,a4
   11818:	01c80833          	add	a6,a6,t3
   1181c:	e68300e3          	beq	t1,s0,1167c <stbi__convert_format16.part.0+0x108>
   11820:	00088613          	mv	a2,a7
   11824:	00080793          	mv	a5,a6
   11828:	fb5ff06f          	j	117dc <stbi__convert_format16.part.0+0x268>
   1182c:	fff48e93          	addi	t4,s1,-1
   11830:	04d00a13          	li	s4,77
   11834:	09600093          	li	ra,150
   11838:	fff00393          	li	t2,-1
   1183c:	000e8293          	mv	t0,t4
   11840:	e20ec6e3          	bltz	t4,1166c <stbi__convert_format16.part.0+0xf8>
   11844:	00065583          	lhu	a1,0(a2)
   11848:	00265a83          	lhu	s5,2(a2)
   1184c:	00465b03          	lhu	s6,4(a2)
   11850:	034585b3          	mul	a1,a1,s4
   11854:	00779123          	sh	t2,2(a5)
   11858:	003b1f93          	slli	t6,s6,0x3
   1185c:	416f8fb3          	sub	t6,t6,s6
   11860:	002f9f93          	slli	t6,t6,0x2
   11864:	016f8fb3          	add	t6,t6,s6
   11868:	00478793          	addi	a5,a5,4
   1186c:	fff28293          	addi	t0,t0,-1
   11870:	00660613          	addi	a2,a2,6
   11874:	021a8ab3          	mul	s5,s5,ra
   11878:	015585b3          	add	a1,a1,s5
   1187c:	01f585b3          	add	a1,a1,t6
   11880:	4085d593          	srai	a1,a1,0x8
   11884:	feb79e23          	sh	a1,-4(a5)
   11888:	fa729ee3          	bne	t0,t2,11844 <stbi__convert_format16.part.0+0x2d0>
   1188c:	00130313          	addi	t1,t1,1
   11890:	00e888b3          	add	a7,a7,a4
   11894:	01c80833          	add	a6,a6,t3
   11898:	de8302e3          	beq	t1,s0,1167c <stbi__convert_format16.part.0+0x108>
   1189c:	00088613          	mv	a2,a7
   118a0:	00080793          	mv	a5,a6
   118a4:	f99ff06f          	j	1183c <stbi__convert_format16.part.0+0x2c8>
   118a8:	fff48e93          	addi	t4,s1,-1
   118ac:	04d00a13          	li	s4,77
   118b0:	09600093          	li	ra,150
   118b4:	fff00393          	li	t2,-1
   118b8:	000e8293          	mv	t0,t4
   118bc:	da0ec8e3          	bltz	t4,1166c <stbi__convert_format16.part.0+0xf8>
   118c0:	00065583          	lhu	a1,0(a2)
   118c4:	00265a83          	lhu	s5,2(a2)
   118c8:	00465b03          	lhu	s6,4(a2)
   118cc:	034585b3          	mul	a1,a1,s4
   118d0:	00278793          	addi	a5,a5,2
   118d4:	003b1f93          	slli	t6,s6,0x3
   118d8:	416f8fb3          	sub	t6,t6,s6
   118dc:	002f9f93          	slli	t6,t6,0x2
   118e0:	016f8fb3          	add	t6,t6,s6
   118e4:	fff28293          	addi	t0,t0,-1
   118e8:	00660613          	addi	a2,a2,6
   118ec:	021a8ab3          	mul	s5,s5,ra
   118f0:	015585b3          	add	a1,a1,s5
   118f4:	01f585b3          	add	a1,a1,t6
   118f8:	4085d593          	srai	a1,a1,0x8
   118fc:	feb79f23          	sh	a1,-2(a5)
   11900:	fc7290e3          	bne	t0,t2,118c0 <stbi__convert_format16.part.0+0x34c>
   11904:	00130313          	addi	t1,t1,1
   11908:	00e888b3          	add	a7,a7,a4
   1190c:	01c80833          	add	a6,a6,t3
   11910:	d68306e3          	beq	t1,s0,1167c <stbi__convert_format16.part.0+0x108>
   11914:	00088613          	mv	a2,a7
   11918:	00080793          	mv	a5,a6
   1191c:	f9dff06f          	j	118b8 <stbi__convert_format16.part.0+0x344>
   11920:	fff48e93          	addi	t4,s1,-1
   11924:	fff00393          	li	t2,-1
   11928:	000e8f93          	mv	t6,t4
   1192c:	d40ec0e3          	bltz	t4,1166c <stbi__convert_format16.part.0+0xf8>
   11930:	00065583          	lhu	a1,0(a2)
   11934:	00265283          	lhu	t0,2(a2)
   11938:	ffff8f93          	addi	t6,t6,-1
   1193c:	00b79223          	sh	a1,4(a5)
   11940:	00b79123          	sh	a1,2(a5)
   11944:	00b79023          	sh	a1,0(a5)
   11948:	00579323          	sh	t0,6(a5)
   1194c:	00460613          	addi	a2,a2,4
   11950:	00878793          	addi	a5,a5,8
   11954:	fc7f9ee3          	bne	t6,t2,11930 <stbi__convert_format16.part.0+0x3bc>
   11958:	00130313          	addi	t1,t1,1
   1195c:	00e888b3          	add	a7,a7,a4
   11960:	01c80833          	add	a6,a6,t3
   11964:	d0830ce3          	beq	t1,s0,1167c <stbi__convert_format16.part.0+0x108>
   11968:	00088613          	mv	a2,a7
   1196c:	00080793          	mv	a5,a6
   11970:	fb9ff06f          	j	11928 <stbi__convert_format16.part.0+0x3b4>
   11974:	fff48e93          	addi	t4,s1,-1
   11978:	fff00293          	li	t0,-1
   1197c:	000e8f93          	mv	t6,t4
   11980:	ce0ec6e3          	bltz	t4,1166c <stbi__convert_format16.part.0+0xf8>
   11984:	00065583          	lhu	a1,0(a2)
   11988:	ffff8f93          	addi	t6,t6,-1
   1198c:	00460613          	addi	a2,a2,4
   11990:	00b79223          	sh	a1,4(a5)
   11994:	00b79123          	sh	a1,2(a5)
   11998:	00b79023          	sh	a1,0(a5)
   1199c:	00678793          	addi	a5,a5,6
   119a0:	fe5f92e3          	bne	t6,t0,11984 <stbi__convert_format16.part.0+0x410>
   119a4:	00130313          	addi	t1,t1,1
   119a8:	00e888b3          	add	a7,a7,a4
   119ac:	01c80833          	add	a6,a6,t3
   119b0:	cc8306e3          	beq	t1,s0,1167c <stbi__convert_format16.part.0+0x108>
   119b4:	00088613          	mv	a2,a7
   119b8:	00080793          	mv	a5,a6
   119bc:	fc1ff06f          	j	1197c <stbi__convert_format16.part.0+0x408>
   119c0:	fff48e93          	addi	t4,s1,-1
   119c4:	fff00293          	li	t0,-1
   119c8:	000e8593          	mv	a1,t4
   119cc:	ca0ec0e3          	bltz	t4,1166c <stbi__convert_format16.part.0+0xf8>
   119d0:	00065f83          	lhu	t6,0(a2)
   119d4:	fff58593          	addi	a1,a1,-1
   119d8:	00460613          	addi	a2,a2,4
   119dc:	01f79023          	sh	t6,0(a5)
   119e0:	00278793          	addi	a5,a5,2
   119e4:	fe5596e3          	bne	a1,t0,119d0 <stbi__convert_format16.part.0+0x45c>
   119e8:	00130313          	addi	t1,t1,1
   119ec:	00e888b3          	add	a7,a7,a4
   119f0:	01c80833          	add	a6,a6,t3
   119f4:	c88304e3          	beq	t1,s0,1167c <stbi__convert_format16.part.0+0x108>
   119f8:	00088613          	mv	a2,a7
   119fc:	00080793          	mv	a5,a6
   11a00:	fc9ff06f          	j	119c8 <stbi__convert_format16.part.0+0x454>
   11a04:	fff48e93          	addi	t4,s1,-1
   11a08:	fff00293          	li	t0,-1
   11a0c:	000e8f93          	mv	t6,t4
   11a10:	c40ecee3          	bltz	t4,1166c <stbi__convert_format16.part.0+0xf8>
   11a14:	00065583          	lhu	a1,0(a2)
   11a18:	00579323          	sh	t0,6(a5)
   11a1c:	ffff8f93          	addi	t6,t6,-1
   11a20:	00b79223          	sh	a1,4(a5)
   11a24:	00b79123          	sh	a1,2(a5)
   11a28:	00b79023          	sh	a1,0(a5)
   11a2c:	00260613          	addi	a2,a2,2
   11a30:	00878793          	addi	a5,a5,8
   11a34:	fe5f90e3          	bne	t6,t0,11a14 <stbi__convert_format16.part.0+0x4a0>
   11a38:	00130313          	addi	t1,t1,1
   11a3c:	00e888b3          	add	a7,a7,a4
   11a40:	01c80833          	add	a6,a6,t3
   11a44:	c2830ce3          	beq	t1,s0,1167c <stbi__convert_format16.part.0+0x108>
   11a48:	00088613          	mv	a2,a7
   11a4c:	00080793          	mv	a5,a6
   11a50:	fbdff06f          	j	11a0c <stbi__convert_format16.part.0+0x498>
   11a54:	fff48e93          	addi	t4,s1,-1
   11a58:	fff00293          	li	t0,-1
   11a5c:	000e8f93          	mv	t6,t4
   11a60:	c00ec6e3          	bltz	t4,1166c <stbi__convert_format16.part.0+0xf8>
   11a64:	00065583          	lhu	a1,0(a2)
   11a68:	ffff8f93          	addi	t6,t6,-1
   11a6c:	00260613          	addi	a2,a2,2
   11a70:	00b79223          	sh	a1,4(a5)
   11a74:	00b79123          	sh	a1,2(a5)
   11a78:	00b79023          	sh	a1,0(a5)
   11a7c:	00678793          	addi	a5,a5,6
   11a80:	fe5f92e3          	bne	t6,t0,11a64 <stbi__convert_format16.part.0+0x4f0>
   11a84:	00130313          	addi	t1,t1,1
   11a88:	00e888b3          	add	a7,a7,a4
   11a8c:	01c80833          	add	a6,a6,t3
   11a90:	be6406e3          	beq	s0,t1,1167c <stbi__convert_format16.part.0+0x108>
   11a94:	00088613          	mv	a2,a7
   11a98:	00080793          	mv	a5,a6
   11a9c:	fc1ff06f          	j	11a5c <stbi__convert_format16.part.0+0x4e8>
   11aa0:	fff48e93          	addi	t4,s1,-1
   11aa4:	fff00f93          	li	t6,-1
   11aa8:	000e8593          	mv	a1,t4
   11aac:	bc0ec0e3          	bltz	t4,1166c <stbi__convert_format16.part.0+0xf8>
   11ab0:	00065283          	lhu	t0,0(a2)
   11ab4:	01f79123          	sh	t6,2(a5)
   11ab8:	fff58593          	addi	a1,a1,-1
   11abc:	00579023          	sh	t0,0(a5)
   11ac0:	00260613          	addi	a2,a2,2
   11ac4:	00478793          	addi	a5,a5,4
   11ac8:	fff594e3          	bne	a1,t6,11ab0 <stbi__convert_format16.part.0+0x53c>
   11acc:	00130313          	addi	t1,t1,1
   11ad0:	00e888b3          	add	a7,a7,a4
   11ad4:	01c80833          	add	a6,a6,t3
   11ad8:	ba8302e3          	beq	t1,s0,1167c <stbi__convert_format16.part.0+0x108>
   11adc:	00088613          	mv	a2,a7
   11ae0:	00080793          	mv	a5,a6
   11ae4:	fc5ff06f          	j	11aa8 <stbi__convert_format16.part.0+0x534>
   11ae8:	00098513          	mv	a0,s3
   11aec:	645140ef          	jal	ra,26930 <free>
   11af0:	0003c7b7          	lui	a5,0x3c
   11af4:	12878793          	addi	a5,a5,296 # 3c128 <_cmdr_inst_end>
   11af8:	b3dff06f          	j	11634 <stbi__convert_format16.part.0+0xc0>

00011afc <stbi__free_jpeg_components.constprop.0>:
   11afc:	08b05663          	blez	a1,11b88 <stbi__free_jpeg_components.constprop.0+0x8c>
   11b00:	ff010113          	addi	sp,sp,-16
   11b04:	00912223          	sw	s1,4(sp)
   11b08:	00359493          	slli	s1,a1,0x3
   11b0c:	00b484b3          	add	s1,s1,a1
   11b10:	00349493          	slli	s1,s1,0x3
   11b14:	000047b7          	lui	a5,0x4
   11b18:	6c878793          	addi	a5,a5,1736 # 46c8 <_ZL22stbi__g_failure_reason+0x46b0>
   11b1c:	009504b3          	add	s1,a0,s1
   11b20:	00812423          	sw	s0,8(sp)
   11b24:	00112623          	sw	ra,12(sp)
   11b28:	00f50433          	add	s0,a0,a5
   11b2c:	00f484b3          	add	s1,s1,a5
   11b30:	00442503          	lw	a0,4(s0)
   11b34:	00050863          	beqz	a0,11b44 <stbi__free_jpeg_components.constprop.0+0x48>
   11b38:	5f9140ef          	jal	ra,26930 <free>
   11b3c:	00042223          	sw	zero,4(s0)
   11b40:	00042023          	sw	zero,0(s0)
   11b44:	00842503          	lw	a0,8(s0)
   11b48:	00050863          	beqz	a0,11b58 <stbi__free_jpeg_components.constprop.0+0x5c>
   11b4c:	5e5140ef          	jal	ra,26930 <free>
   11b50:	00042423          	sw	zero,8(s0)
   11b54:	00042823          	sw	zero,16(s0)
   11b58:	00c42503          	lw	a0,12(s0)
   11b5c:	00050663          	beqz	a0,11b68 <stbi__free_jpeg_components.constprop.0+0x6c>
   11b60:	5d1140ef          	jal	ra,26930 <free>
   11b64:	00042623          	sw	zero,12(s0)
   11b68:	04840413          	addi	s0,s0,72
   11b6c:	fc9412e3          	bne	s0,s1,11b30 <stbi__free_jpeg_components.constprop.0+0x34>
   11b70:	00c12083          	lw	ra,12(sp)
   11b74:	00812403          	lw	s0,8(sp)
   11b78:	00412483          	lw	s1,4(sp)
   11b7c:	00000513          	li	a0,0
   11b80:	01010113          	addi	sp,sp,16
   11b84:	00008067          	ret
   11b88:	00000513          	li	a0,0
   11b8c:	00008067          	ret

00011b90 <stbi__mad4sizes_valid.constprop.0>:
   11b90:	00b56733          	or	a4,a0,a1
   11b94:	00050793          	mv	a5,a0
   11b98:	02074a63          	bltz	a4,11bcc <stbi__mad4sizes_valid.constprop.0+0x3c>
   11b9c:	02058c63          	beqz	a1,11bd4 <stbi__mad4sizes_valid.constprop.0+0x44>
   11ba0:	80000737          	lui	a4,0x80000
   11ba4:	fff74713          	not	a4,a4
   11ba8:	02b74833          	div	a6,a4,a1
   11bac:	00000513          	li	a0,0
   11bb0:	00f84c63          	blt	a6,a5,11bc8 <stbi__mad4sizes_valid.constprop.0+0x38>
   11bb4:	00064a63          	bltz	a2,11bc8 <stbi__mad4sizes_valid.constprop.0+0x38>
   11bb8:	04060c63          	beqz	a2,11c10 <stbi__mad4sizes_valid.constprop.0+0x80>
   11bbc:	02c74733          	div	a4,a4,a2
   11bc0:	02b785b3          	mul	a1,a5,a1
   11bc4:	04b75063          	bge	a4,a1,11c04 <stbi__mad4sizes_valid.constprop.0+0x74>
   11bc8:	00008067          	ret
   11bcc:	00000513          	li	a0,0
   11bd0:	00008067          	ret
   11bd4:	00000513          	li	a0,0
   11bd8:	02064a63          	bltz	a2,11c0c <stbi__mad4sizes_valid.constprop.0+0x7c>
   11bdc:	00000513          	li	a0,0
   11be0:	fe06c4e3          	bltz	a3,11bc8 <stbi__mad4sizes_valid.constprop.0+0x38>
   11be4:	00100513          	li	a0,1
   11be8:	fe0680e3          	beqz	a3,11bc8 <stbi__mad4sizes_valid.constprop.0+0x38>
   11bec:	80000537          	lui	a0,0x80000
   11bf0:	fff54513          	not	a0,a0
   11bf4:	02d54533          	div	a0,a0,a3
   11bf8:	00b52533          	slt	a0,a0,a1
   11bfc:	00154513          	xori	a0,a0,1
   11c00:	00008067          	ret
   11c04:	02c585b3          	mul	a1,a1,a2
   11c08:	fd5ff06f          	j	11bdc <stbi__mad4sizes_valid.constprop.0+0x4c>
   11c0c:	00008067          	ret
   11c10:	fff6c693          	not	a3,a3
   11c14:	01f6d513          	srli	a0,a3,0x1f
   11c18:	00008067          	ret

00011c1c <stbi__malloc_mad3>:
   11c1c:	00b567b3          	or	a5,a0,a1
   11c20:	0207c663          	bltz	a5,11c4c <stbi__malloc_mad3+0x30>
   11c24:	02058863          	beqz	a1,11c54 <stbi__malloc_mad3+0x38>
   11c28:	800007b7          	lui	a5,0x80000
   11c2c:	fff7c793          	not	a5,a5
   11c30:	02b7c733          	div	a4,a5,a1
   11c34:	00a74c63          	blt	a4,a0,11c4c <stbi__malloc_mad3+0x30>
   11c38:	00064a63          	bltz	a2,11c4c <stbi__malloc_mad3+0x30>
   11c3c:	02060a63          	beqz	a2,11c70 <stbi__malloc_mad3+0x54>
   11c40:	02c7c733          	div	a4,a5,a2
   11c44:	02b505b3          	mul	a1,a0,a1
   11c48:	00b75c63          	bge	a4,a1,11c60 <stbi__malloc_mad3+0x44>
   11c4c:	00000513          	li	a0,0
   11c50:	00008067          	ret
   11c54:	fe064ce3          	bltz	a2,11c4c <stbi__malloc_mad3+0x30>
   11c58:	00b68533          	add	a0,a3,a1
   11c5c:	4c91406f          	j	26924 <malloc>
   11c60:	02b605b3          	mul	a1,a2,a1
   11c64:	40d787b3          	sub	a5,a5,a3
   11c68:	feb7d8e3          	bge	a5,a1,11c58 <stbi__malloc_mad3+0x3c>
   11c6c:	fe1ff06f          	j	11c4c <stbi__malloc_mad3+0x30>
   11c70:	00000593          	li	a1,0
   11c74:	fe5ff06f          	j	11c58 <stbi__malloc_mad3+0x3c>

00011c78 <stbi__zbuild_huffman>:
   11c78:	f4010113          	addi	sp,sp,-192
   11c7c:	0a812c23          	sw	s0,184(sp)
   11c80:	0a912a23          	sw	s1,180(sp)
   11c84:	0b212823          	sw	s2,176(sp)
   11c88:	00058493          	mv	s1,a1
   11c8c:	00050413          	mv	s0,a0
   11c90:	00060913          	mv	s2,a2
   11c94:	00000593          	li	a1,0
   11c98:	04400613          	li	a2,68
   11c9c:	04c10513          	addi	a0,sp,76
   11ca0:	0a112e23          	sw	ra,188(sp)
   11ca4:	0b312623          	sw	s3,172(sp)
   11ca8:	0b412423          	sw	s4,168(sp)
   11cac:	0b512223          	sw	s5,164(sp)
   11cb0:	0b612023          	sw	s6,160(sp)
   11cb4:	09712e23          	sw	s7,156(sp)
   11cb8:	5b0150ef          	jal	ra,27268 <memset>
   11cbc:	40000613          	li	a2,1024
   11cc0:	00000593          	li	a1,0
   11cc4:	00040513          	mv	a0,s0
   11cc8:	5a0150ef          	jal	ra,27268 <memset>
   11ccc:	00048713          	mv	a4,s1
   11cd0:	00990633          	add	a2,s2,s1
   11cd4:	00074783          	lbu	a5,0(a4) # 80000000 <_rgmii_lvl2fifo+0x70b00000>
   11cd8:	00170713          	addi	a4,a4,1
   11cdc:	00279793          	slli	a5,a5,0x2
   11ce0:	09078793          	addi	a5,a5,144 # 80000090 <_rgmii_lvl2fifo+0x70b00090>
   11ce4:	002787b3          	add	a5,a5,sp
   11ce8:	fbc7a683          	lw	a3,-68(a5)
   11cec:	00168693          	addi	a3,a3,1
   11cf0:	fad7ae23          	sw	a3,-68(a5)
   11cf4:	fee610e3          	bne	a2,a4,11cd4 <stbi__zbuild_huffman+0x5c>
   11cf8:	05012783          	lw	a5,80(sp)
   11cfc:	04012623          	sw	zero,76(sp)
   11d00:	00200713          	li	a4,2
   11d04:	46f74463          	blt	a4,a5,1216c <stbi__zbuild_huffman+0x4f4>
   11d08:	05412983          	lw	s3,84(sp)
   11d0c:	00400713          	li	a4,4
   11d10:	45374e63          	blt	a4,s3,1216c <stbi__zbuild_huffman+0x4f4>
   11d14:	05812a03          	lw	s4,88(sp)
   11d18:	00800713          	li	a4,8
   11d1c:	45474863          	blt	a4,s4,1216c <stbi__zbuild_huffman+0x4f4>
   11d20:	05c12383          	lw	t2,92(sp)
   11d24:	01000713          	li	a4,16
   11d28:	44774263          	blt	a4,t2,1216c <stbi__zbuild_huffman+0x4f4>
   11d2c:	06012283          	lw	t0,96(sp)
   11d30:	02000713          	li	a4,32
   11d34:	42574c63          	blt	a4,t0,1216c <stbi__zbuild_huffman+0x4f4>
   11d38:	06412f83          	lw	t6,100(sp)
   11d3c:	04000713          	li	a4,64
   11d40:	43f74663          	blt	a4,t6,1216c <stbi__zbuild_huffman+0x4f4>
   11d44:	06812f03          	lw	t5,104(sp)
   11d48:	08000713          	li	a4,128
   11d4c:	43e74063          	blt	a4,t5,1216c <stbi__zbuild_huffman+0x4f4>
   11d50:	06c12e83          	lw	t4,108(sp)
   11d54:	10000713          	li	a4,256
   11d58:	41d74a63          	blt	a4,t4,1216c <stbi__zbuild_huffman+0x4f4>
   11d5c:	07012e03          	lw	t3,112(sp)
   11d60:	20000713          	li	a4,512
   11d64:	41c74463          	blt	a4,t3,1216c <stbi__zbuild_huffman+0x4f4>
   11d68:	07412303          	lw	t1,116(sp)
   11d6c:	40000713          	li	a4,1024
   11d70:	3e674e63          	blt	a4,t1,1216c <stbi__zbuild_huffman+0x4f4>
   11d74:	07812883          	lw	a7,120(sp)
   11d78:	00001737          	lui	a4,0x1
   11d7c:	80070693          	addi	a3,a4,-2048 # 800 <_ZL22stbi__g_failure_reason+0x7e8>
   11d80:	3f16c663          	blt	a3,a7,1216c <stbi__zbuild_huffman+0x4f4>
   11d84:	07c12803          	lw	a6,124(sp)
   11d88:	3f074263          	blt	a4,a6,1216c <stbi__zbuild_huffman+0x4f4>
   11d8c:	08012503          	lw	a0,128(sp)
   11d90:	00002737          	lui	a4,0x2
   11d94:	3ca74c63          	blt	a4,a0,1216c <stbi__zbuild_huffman+0x4f4>
   11d98:	08412583          	lw	a1,132(sp)
   11d9c:	00004737          	lui	a4,0x4
   11da0:	3cb74663          	blt	a4,a1,1216c <stbi__zbuild_huffman+0x4f4>
   11da4:	08812603          	lw	a2,136(sp)
   11da8:	00008737          	lui	a4,0x8
   11dac:	3cc74063          	blt	a4,a2,1216c <stbi__zbuild_huffman+0x4f4>
   11db0:	00179713          	slli	a4,a5,0x1
   11db4:	00f79693          	slli	a3,a5,0xf
   11db8:	00e12a23          	sw	a4,20(sp)
   11dbc:	40e41223          	sh	a4,1028(s0)
   11dc0:	00012823          	sw	zero,16(sp)
   11dc4:	40041123          	sh	zero,1026(s0)
   11dc8:	46041323          	sh	zero,1126(s0)
   11dcc:	42d42223          	sw	a3,1060(s0)
   11dd0:	46f41423          	sh	a5,1128(s0)
   11dd4:	01370733          	add	a4,a4,s3
   11dd8:	00098663          	beqz	s3,11de4 <stbi__zbuild_huffman+0x16c>
   11ddc:	00400693          	li	a3,4
   11de0:	3ce6cc63          	blt	a3,a4,121b8 <stbi__zbuild_huffman+0x540>
   11de4:	00171693          	slli	a3,a4,0x1
   11de8:	013787b3          	add	a5,a5,s3
   11dec:	00e71713          	slli	a4,a4,0xe
   11df0:	00d12c23          	sw	a3,24(sp)
   11df4:	40d41323          	sh	a3,1030(s0)
   11df8:	42e42423          	sw	a4,1064(s0)
   11dfc:	46f41523          	sh	a5,1130(s0)
   11e00:	014686b3          	add	a3,a3,s4
   11e04:	000a0663          	beqz	s4,11e10 <stbi__zbuild_huffman+0x198>
   11e08:	00800713          	li	a4,8
   11e0c:	3ad74663          	blt	a4,a3,121b8 <stbi__zbuild_huffman+0x540>
   11e10:	00169713          	slli	a4,a3,0x1
   11e14:	014787b3          	add	a5,a5,s4
   11e18:	00d69693          	slli	a3,a3,0xd
   11e1c:	00e12e23          	sw	a4,28(sp)
   11e20:	40e41423          	sh	a4,1032(s0)
   11e24:	42d42623          	sw	a3,1068(s0)
   11e28:	46f41623          	sh	a5,1132(s0)
   11e2c:	00770733          	add	a4,a4,t2
   11e30:	00038663          	beqz	t2,11e3c <stbi__zbuild_huffman+0x1c4>
   11e34:	01000693          	li	a3,16
   11e38:	38e6c063          	blt	a3,a4,121b8 <stbi__zbuild_huffman+0x540>
   11e3c:	00171693          	slli	a3,a4,0x1
   11e40:	007787b3          	add	a5,a5,t2
   11e44:	00c71713          	slli	a4,a4,0xc
   11e48:	02d12023          	sw	a3,32(sp)
   11e4c:	40d41523          	sh	a3,1034(s0)
   11e50:	42e42823          	sw	a4,1072(s0)
   11e54:	46f41723          	sh	a5,1134(s0)
   11e58:	005686b3          	add	a3,a3,t0
   11e5c:	00028663          	beqz	t0,11e68 <stbi__zbuild_huffman+0x1f0>
   11e60:	02000713          	li	a4,32
   11e64:	34d74a63          	blt	a4,a3,121b8 <stbi__zbuild_huffman+0x540>
   11e68:	00169713          	slli	a4,a3,0x1
   11e6c:	005787b3          	add	a5,a5,t0
   11e70:	00b69693          	slli	a3,a3,0xb
   11e74:	02e12223          	sw	a4,36(sp)
   11e78:	40e41623          	sh	a4,1036(s0)
   11e7c:	42d42a23          	sw	a3,1076(s0)
   11e80:	46f41823          	sh	a5,1136(s0)
   11e84:	01f70733          	add	a4,a4,t6
   11e88:	000f8663          	beqz	t6,11e94 <stbi__zbuild_huffman+0x21c>
   11e8c:	04000693          	li	a3,64
   11e90:	32e6c463          	blt	a3,a4,121b8 <stbi__zbuild_huffman+0x540>
   11e94:	00171693          	slli	a3,a4,0x1
   11e98:	01f787b3          	add	a5,a5,t6
   11e9c:	00a71713          	slli	a4,a4,0xa
   11ea0:	02d12423          	sw	a3,40(sp)
   11ea4:	40d41723          	sh	a3,1038(s0)
   11ea8:	42e42c23          	sw	a4,1080(s0)
   11eac:	46f41923          	sh	a5,1138(s0)
   11eb0:	01e686b3          	add	a3,a3,t5
   11eb4:	000f0663          	beqz	t5,11ec0 <stbi__zbuild_huffman+0x248>
   11eb8:	08000713          	li	a4,128
   11ebc:	2ed74e63          	blt	a4,a3,121b8 <stbi__zbuild_huffman+0x540>
   11ec0:	00169713          	slli	a4,a3,0x1
   11ec4:	01e787b3          	add	a5,a5,t5
   11ec8:	00969693          	slli	a3,a3,0x9
   11ecc:	02e12623          	sw	a4,44(sp)
   11ed0:	40e41823          	sh	a4,1040(s0)
   11ed4:	42d42e23          	sw	a3,1084(s0)
   11ed8:	46f41a23          	sh	a5,1140(s0)
   11edc:	01d70733          	add	a4,a4,t4
   11ee0:	000e8663          	beqz	t4,11eec <stbi__zbuild_huffman+0x274>
   11ee4:	10000693          	li	a3,256
   11ee8:	2ce6c863          	blt	a3,a4,121b8 <stbi__zbuild_huffman+0x540>
   11eec:	00171693          	slli	a3,a4,0x1
   11ef0:	01d787b3          	add	a5,a5,t4
   11ef4:	00871713          	slli	a4,a4,0x8
   11ef8:	02d12823          	sw	a3,48(sp)
   11efc:	40d41923          	sh	a3,1042(s0)
   11f00:	44e42023          	sw	a4,1088(s0)
   11f04:	46f41b23          	sh	a5,1142(s0)
   11f08:	01c686b3          	add	a3,a3,t3
   11f0c:	000e0663          	beqz	t3,11f18 <stbi__zbuild_huffman+0x2a0>
   11f10:	20000713          	li	a4,512
   11f14:	2ad74263          	blt	a4,a3,121b8 <stbi__zbuild_huffman+0x540>
   11f18:	00169713          	slli	a4,a3,0x1
   11f1c:	01c787b3          	add	a5,a5,t3
   11f20:	00769693          	slli	a3,a3,0x7
   11f24:	02e12a23          	sw	a4,52(sp)
   11f28:	40e41a23          	sh	a4,1044(s0)
   11f2c:	44d42223          	sw	a3,1092(s0)
   11f30:	46f41c23          	sh	a5,1144(s0)
   11f34:	00670733          	add	a4,a4,t1
   11f38:	00030663          	beqz	t1,11f44 <stbi__zbuild_huffman+0x2cc>
   11f3c:	40000693          	li	a3,1024
   11f40:	26e6cc63          	blt	a3,a4,121b8 <stbi__zbuild_huffman+0x540>
   11f44:	00171693          	slli	a3,a4,0x1
   11f48:	006787b3          	add	a5,a5,t1
   11f4c:	00671713          	slli	a4,a4,0x6
   11f50:	02d12c23          	sw	a3,56(sp)
   11f54:	40d41b23          	sh	a3,1046(s0)
   11f58:	44e42423          	sw	a4,1096(s0)
   11f5c:	46f41d23          	sh	a5,1146(s0)
   11f60:	011686b3          	add	a3,a3,a7
   11f64:	00088863          	beqz	a7,11f74 <stbi__zbuild_huffman+0x2fc>
   11f68:	00001737          	lui	a4,0x1
   11f6c:	80070713          	addi	a4,a4,-2048 # 800 <_ZL22stbi__g_failure_reason+0x7e8>
   11f70:	24d74463          	blt	a4,a3,121b8 <stbi__zbuild_huffman+0x540>
   11f74:	00169713          	slli	a4,a3,0x1
   11f78:	011787b3          	add	a5,a5,a7
   11f7c:	00569693          	slli	a3,a3,0x5
   11f80:	02e12e23          	sw	a4,60(sp)
   11f84:	40e41c23          	sh	a4,1048(s0)
   11f88:	44d42623          	sw	a3,1100(s0)
   11f8c:	46f41e23          	sh	a5,1148(s0)
   11f90:	01070733          	add	a4,a4,a6
   11f94:	00080663          	beqz	a6,11fa0 <stbi__zbuild_huffman+0x328>
   11f98:	000016b7          	lui	a3,0x1
   11f9c:	20e6ce63          	blt	a3,a4,121b8 <stbi__zbuild_huffman+0x540>
   11fa0:	00171693          	slli	a3,a4,0x1
   11fa4:	010787b3          	add	a5,a5,a6
   11fa8:	00471713          	slli	a4,a4,0x4
   11fac:	04d12023          	sw	a3,64(sp)
   11fb0:	40d41d23          	sh	a3,1050(s0)
   11fb4:	44e42823          	sw	a4,1104(s0)
   11fb8:	46f41f23          	sh	a5,1150(s0)
   11fbc:	00a686b3          	add	a3,a3,a0
   11fc0:	00050663          	beqz	a0,11fcc <stbi__zbuild_huffman+0x354>
   11fc4:	00002737          	lui	a4,0x2
   11fc8:	1ed74863          	blt	a4,a3,121b8 <stbi__zbuild_huffman+0x540>
   11fcc:	00169713          	slli	a4,a3,0x1
   11fd0:	00a787b3          	add	a5,a5,a0
   11fd4:	00369693          	slli	a3,a3,0x3
   11fd8:	04e12223          	sw	a4,68(sp)
   11fdc:	40e41e23          	sh	a4,1052(s0)
   11fe0:	44d42a23          	sw	a3,1108(s0)
   11fe4:	48f41023          	sh	a5,1152(s0)
   11fe8:	00b70733          	add	a4,a4,a1
   11fec:	00058663          	beqz	a1,11ff8 <stbi__zbuild_huffman+0x380>
   11ff0:	000046b7          	lui	a3,0x4
   11ff4:	1ce6c263          	blt	a3,a4,121b8 <stbi__zbuild_huffman+0x540>
   11ff8:	00171693          	slli	a3,a4,0x1
   11ffc:	00b787b3          	add	a5,a5,a1
   12000:	00271713          	slli	a4,a4,0x2
   12004:	04d12423          	sw	a3,72(sp)
   12008:	40d41f23          	sh	a3,1054(s0)
   1200c:	44e42c23          	sw	a4,1112(s0)
   12010:	48f41123          	sh	a5,1154(s0)
   12014:	00d606b3          	add	a3,a2,a3
   12018:	18061c63          	bnez	a2,121b0 <stbi__zbuild_huffman+0x538>
   1201c:	00010837          	lui	a6,0x10
   12020:	00169693          	slli	a3,a3,0x1
   12024:	000052b7          	lui	t0,0x5
   12028:	0000bfb7          	lui	t6,0xb
   1202c:	00003f37          	lui	t5,0x3
   12030:	0000deb7          	lui	t4,0xd
   12034:	00001e37          	lui	t3,0x1
   12038:	0000f337          	lui	t1,0xf
   1203c:	44d42e23          	sw	a3,1116(s0)
   12040:	47042023          	sw	a6,1120(s0)
   12044:	00000693          	li	a3,0
   12048:	00900893          	li	a7,9
   1204c:	55528293          	addi	t0,t0,1365 # 5555 <_ZL22stbi__g_failure_reason+0x553d>
   12050:	aaaf8f93          	addi	t6,t6,-1366 # aaaa <_ZL22stbi__g_failure_reason+0xaa92>
   12054:	333f0f13          	addi	t5,t5,819 # 3333 <_ZL22stbi__g_failure_reason+0x331b>
   12058:	ccce8e93          	addi	t4,t4,-820 # cccc <_ZL22stbi__g_failure_reason+0xccb4>
   1205c:	f0fe0e13          	addi	t3,t3,-241 # f0f <_ZL22stbi__g_failure_reason+0xef7>
   12060:	0f030313          	addi	t1,t1,240 # f0f0 <_ZL22stbi__g_failure_reason+0xf0d8>
   12064:	fff80813          	addi	a6,a6,-1 # ffff <_ZL22stbi__g_failure_reason+0xffe7>
   12068:	01000a13          	li	s4,16
   1206c:	00100993          	li	s3,1
   12070:	00200393          	li	t2,2
   12074:	1ff00513          	li	a0,511
   12078:	01c0006f          	j	12094 <stbi__zbuild_huffman+0x41c>
   1207c:	09058793          	addi	a5,a1,144
   12080:	002785b3          	add	a1,a5,sp
   12084:	00160613          	addi	a2,a2,1
   12088:	f6c5ae23          	sw	a2,-132(a1)
   1208c:	00168693          	addi	a3,a3,1 # 4001 <_ZL22stbi__g_failure_reason+0x3fe9>
   12090:	10d90c63          	beq	s2,a3,121a8 <stbi__zbuild_huffman+0x530>
   12094:	00d487b3          	add	a5,s1,a3
   12098:	0007c783          	lbu	a5,0(a5)
   1209c:	fe0788e3          	beqz	a5,1208c <stbi__zbuild_huffman+0x414>
   120a0:	00279593          	slli	a1,a5,0x2
   120a4:	09058713          	addi	a4,a1,144
   120a8:	00179a93          	slli	s5,a5,0x1
   120ac:	01540ab3          	add	s5,s0,s5
   120b0:	00270633          	add	a2,a4,sp
   120b4:	f7c62603          	lw	a2,-132(a2)
   120b8:	400ad703          	lhu	a4,1024(s5)
   120bc:	464ada83          	lhu	s5,1124(s5)
   120c0:	40e60733          	sub	a4,a2,a4
   120c4:	01570733          	add	a4,a4,s5
   120c8:	2d070a93          	addi	s5,a4,720 # 22d0 <_ZL22stbi__g_failure_reason+0x22b8>
   120cc:	001a9a93          	slli	s5,s5,0x1
   120d0:	00e40733          	add	a4,s0,a4
   120d4:	48f70223          	sb	a5,1156(a4)
   120d8:	01540733          	add	a4,s0,s5
   120dc:	00d71223          	sh	a3,4(a4)
   120e0:	f8f8cee3          	blt	a7,a5,1207c <stbi__zbuild_huffman+0x404>
   120e4:	40165713          	srai	a4,a2,0x1
   120e8:	00161a93          	slli	s5,a2,0x1
   120ec:	01fafab3          	and	s5,s5,t6
   120f0:	00577733          	and	a4,a4,t0
   120f4:	01576733          	or	a4,a4,s5
   120f8:	40275a93          	srai	s5,a4,0x2
   120fc:	00271713          	slli	a4,a4,0x2
   12100:	01d77733          	and	a4,a4,t4
   12104:	01eafab3          	and	s5,s5,t5
   12108:	00eaeab3          	or	s5,s5,a4
   1210c:	404ad713          	srai	a4,s5,0x4
   12110:	004a9a93          	slli	s5,s5,0x4
   12114:	006afab3          	and	s5,s5,t1
   12118:	01c77733          	and	a4,a4,t3
   1211c:	01576733          	or	a4,a4,s5
   12120:	00871a93          	slli	s5,a4,0x8
   12124:	010afab3          	and	s5,s5,a6
   12128:	40875713          	srai	a4,a4,0x8
   1212c:	01576733          	or	a4,a4,s5
   12130:	00979b13          	slli	s6,a5,0x9
   12134:	40fa0ab3          	sub	s5,s4,a5
   12138:	41575733          	sra	a4,a4,s5
   1213c:	00db6b33          	or	s6,s6,a3
   12140:	00171a93          	slli	s5,a4,0x1
   12144:	010b1b13          	slli	s6,s6,0x10
   12148:	00f99bb3          	sll	s7,s3,a5
   1214c:	010b5b13          	srli	s6,s6,0x10
   12150:	00f397b3          	sll	a5,t2,a5
   12154:	01540ab3          	add	s5,s0,s5
   12158:	016a9023          	sh	s6,0(s5)
   1215c:	01770733          	add	a4,a4,s7
   12160:	00fa8ab3          	add	s5,s5,a5
   12164:	fee55ae3          	bge	a0,a4,12158 <stbi__zbuild_huffman+0x4e0>
   12168:	f15ff06f          	j	1207c <stbi__zbuild_huffman+0x404>
   1216c:	0003c7b7          	lui	a5,0x3c
   12170:	1dc78793          	addi	a5,a5,476 # 3c1dc <_cmdr_inst_end+0xb4>
   12174:	00f22c23          	sw	a5,24(tp) # 18 <_ZL22stbi__g_failure_reason>
   12178:	00000513          	li	a0,0
   1217c:	0bc12083          	lw	ra,188(sp)
   12180:	0b812403          	lw	s0,184(sp)
   12184:	0b412483          	lw	s1,180(sp)
   12188:	0b012903          	lw	s2,176(sp)
   1218c:	0ac12983          	lw	s3,172(sp)
   12190:	0a812a03          	lw	s4,168(sp)
   12194:	0a412a83          	lw	s5,164(sp)
   12198:	0a012b03          	lw	s6,160(sp)
   1219c:	09c12b83          	lw	s7,156(sp)
   121a0:	0c010113          	addi	sp,sp,192
   121a4:	00008067          	ret
   121a8:	00100513          	li	a0,1
   121ac:	fd1ff06f          	j	1217c <stbi__zbuild_huffman+0x504>
   121b0:	000087b7          	lui	a5,0x8
   121b4:	e6d7d4e3          	bge	a5,a3,1201c <stbi__zbuild_huffman+0x3a4>
   121b8:	0003c7b7          	lui	a5,0x3c
   121bc:	1cc78793          	addi	a5,a5,460 # 3c1cc <_cmdr_inst_end+0xa4>
   121c0:	fb5ff06f          	j	12174 <stbi__zbuild_huffman+0x4fc>

000121c4 <stbi__pnm_skip_whitespace>:
   121c4:	fd010113          	addi	sp,sp,-48
   121c8:	02812423          	sw	s0,40(sp)
   121cc:	02912223          	sw	s1,36(sp)
   121d0:	03212023          	sw	s2,32(sp)
   121d4:	01312e23          	sw	s3,28(sp)
   121d8:	01412c23          	sw	s4,24(sp)
   121dc:	01512a23          	sw	s5,20(sp)
   121e0:	02112623          	sw	ra,44(sp)
   121e4:	01612823          	sw	s6,16(sp)
   121e8:	01712623          	sw	s7,12(sp)
   121ec:	01812423          	sw	s8,8(sp)
   121f0:	00050413          	mv	s0,a0
   121f4:	00058493          	mv	s1,a1
   121f8:	02000913          	li	s2,32
   121fc:	00400993          	li	s3,4
   12200:	02850a93          	addi	s5,a0,40 # 80000028 <_rgmii_lvl2fifo+0x70b00028>
   12204:	02950a13          	addi	s4,a0,41
   12208:	01042783          	lw	a5,16(s0)
   1220c:	0e078a63          	beqz	a5,12300 <stbi__pnm_skip_whitespace+0x13c>
   12210:	01842783          	lw	a5,24(s0)
   12214:	01c42503          	lw	a0,28(s0)
   12218:	000780e7          	jalr	a5
   1221c:	16050e63          	beqz	a0,12398 <stbi__pnm_skip_whitespace+0x1d4>
   12220:	02042783          	lw	a5,32(s0)
   12224:	02078463          	beqz	a5,1224c <stbi__pnm_skip_whitespace+0x88>
   12228:	0ac42683          	lw	a3,172(s0)
   1222c:	0b042783          	lw	a5,176(s0)
   12230:	00068713          	mv	a4,a3
   12234:	1ef6fa63          	bgeu	a3,a5,12428 <stbi__pnm_skip_whitespace+0x264>
   12238:	0004c783          	lbu	a5,0(s1)
   1223c:	0b278663          	beq	a5,s2,122e8 <stbi__pnm_skip_whitespace+0x124>
   12240:	ff778793          	addi	a5,a5,-9
   12244:	0ff7f793          	zext.b	a5,a5
   12248:	08f9fe63          	bgeu	s3,a5,122e4 <stbi__pnm_skip_whitespace+0x120>
   1224c:	01042783          	lw	a5,16(s0)
   12250:	00078e63          	beqz	a5,1226c <stbi__pnm_skip_whitespace+0xa8>
   12254:	01842783          	lw	a5,24(s0)
   12258:	01c42503          	lw	a0,28(s0)
   1225c:	000780e7          	jalr	a5
   12260:	00050c63          	beqz	a0,12278 <stbi__pnm_skip_whitespace+0xb4>
   12264:	02042783          	lw	a5,32(s0)
   12268:	0a078463          	beqz	a5,12310 <stbi__pnm_skip_whitespace+0x14c>
   1226c:	0ac42703          	lw	a4,172(s0)
   12270:	0b042783          	lw	a5,176(s0)
   12274:	08f77e63          	bgeu	a4,a5,12310 <stbi__pnm_skip_whitespace+0x14c>
   12278:	0004c703          	lbu	a4,0(s1)
   1227c:	02300793          	li	a5,35
   12280:	08f71863          	bne	a4,a5,12310 <stbi__pnm_skip_whitespace+0x14c>
   12284:	00a00b93          	li	s7,10
   12288:	00d00c13          	li	s8,13
   1228c:	01042783          	lw	a5,16(s0)
   12290:	00078e63          	beqz	a5,122ac <stbi__pnm_skip_whitespace+0xe8>
   12294:	01842783          	lw	a5,24(s0)
   12298:	01c42503          	lw	a0,28(s0)
   1229c:	000780e7          	jalr	a5
   122a0:	00050c63          	beqz	a0,122b8 <stbi__pnm_skip_whitespace+0xf4>
   122a4:	02042783          	lw	a5,32(s0)
   122a8:	f60780e3          	beqz	a5,12208 <stbi__pnm_skip_whitespace+0x44>
   122ac:	0ac42703          	lw	a4,172(s0)
   122b0:	0b042783          	lw	a5,176(s0)
   122b4:	f4f77ae3          	bgeu	a4,a5,12208 <stbi__pnm_skip_whitespace+0x44>
   122b8:	0004c783          	lbu	a5,0(s1)
   122bc:	f57786e3          	beq	a5,s7,12208 <stbi__pnm_skip_whitespace+0x44>
   122c0:	f58784e3          	beq	a5,s8,12208 <stbi__pnm_skip_whitespace+0x44>
   122c4:	0ac42783          	lw	a5,172(s0)
   122c8:	0b042703          	lw	a4,176(s0)
   122cc:	06e7fa63          	bgeu	a5,a4,12340 <stbi__pnm_skip_whitespace+0x17c>
   122d0:	00178713          	addi	a4,a5,1
   122d4:	0ae42623          	sw	a4,172(s0)
   122d8:	0007cb03          	lbu	s6,0(a5)
   122dc:	01648023          	sb	s6,0(s1)
   122e0:	fadff06f          	j	1228c <stbi__pnm_skip_whitespace+0xc8>
   122e4:	00068713          	mv	a4,a3
   122e8:	00170793          	addi	a5,a4,1
   122ec:	0af42623          	sw	a5,172(s0)
   122f0:	00074b03          	lbu	s6,0(a4)
   122f4:	01648023          	sb	s6,0(s1)
   122f8:	01042783          	lw	a5,16(s0)
   122fc:	f0079ae3          	bnez	a5,12210 <stbi__pnm_skip_whitespace+0x4c>
   12300:	0ac42683          	lw	a3,172(s0)
   12304:	0b042783          	lw	a5,176(s0)
   12308:	00068713          	mv	a4,a3
   1230c:	f2f6e6e3          	bltu	a3,a5,12238 <stbi__pnm_skip_whitespace+0x74>
   12310:	02c12083          	lw	ra,44(sp)
   12314:	02812403          	lw	s0,40(sp)
   12318:	02412483          	lw	s1,36(sp)
   1231c:	02012903          	lw	s2,32(sp)
   12320:	01c12983          	lw	s3,28(sp)
   12324:	01812a03          	lw	s4,24(sp)
   12328:	01412a83          	lw	s5,20(sp)
   1232c:	01012b03          	lw	s6,16(sp)
   12330:	00c12b83          	lw	s7,12(sp)
   12334:	00812c03          	lw	s8,8(sp)
   12338:	03010113          	addi	sp,sp,48
   1233c:	00008067          	ret
   12340:	02042783          	lw	a5,32(s0)
   12344:	00000b13          	li	s6,0
   12348:	f8078ae3          	beqz	a5,122dc <stbi__pnm_skip_whitespace+0x118>
   1234c:	01042783          	lw	a5,16(s0)
   12350:	02442603          	lw	a2,36(s0)
   12354:	01c42503          	lw	a0,28(s0)
   12358:	000a8593          	mv	a1,s5
   1235c:	000780e7          	jalr	a5
   12360:	0ac42703          	lw	a4,172(s0)
   12364:	0b442683          	lw	a3,180(s0)
   12368:	0a842783          	lw	a5,168(s0)
   1236c:	40d70733          	sub	a4,a4,a3
   12370:	00e787b3          	add	a5,a5,a4
   12374:	0af42423          	sw	a5,168(s0)
   12378:	0a051263          	bnez	a0,1241c <stbi__pnm_skip_whitespace+0x258>
   1237c:	02042023          	sw	zero,32(s0)
   12380:	02040423          	sb	zero,40(s0)
   12384:	000a0513          	mv	a0,s4
   12388:	0aa42823          	sw	a0,176(s0)
   1238c:	0b442623          	sw	s4,172(s0)
   12390:	01648023          	sb	s6,0(s1)
   12394:	ef9ff06f          	j	1228c <stbi__pnm_skip_whitespace+0xc8>
   12398:	0004c783          	lbu	a5,0(s1)
   1239c:	01278863          	beq	a5,s2,123ac <stbi__pnm_skip_whitespace+0x1e8>
   123a0:	ff778793          	addi	a5,a5,-9
   123a4:	0ff7f793          	zext.b	a5,a5
   123a8:	eaf9e2e3          	bltu	s3,a5,1224c <stbi__pnm_skip_whitespace+0x88>
   123ac:	0ac42703          	lw	a4,172(s0)
   123b0:	0b042783          	lw	a5,176(s0)
   123b4:	f2f76ae3          	bltu	a4,a5,122e8 <stbi__pnm_skip_whitespace+0x124>
   123b8:	02042783          	lw	a5,32(s0)
   123bc:	00000b13          	li	s6,0
   123c0:	f2078ae3          	beqz	a5,122f4 <stbi__pnm_skip_whitespace+0x130>
   123c4:	01042783          	lw	a5,16(s0)
   123c8:	02442603          	lw	a2,36(s0)
   123cc:	01c42503          	lw	a0,28(s0)
   123d0:	000a8593          	mv	a1,s5
   123d4:	000780e7          	jalr	a5
   123d8:	0ac42703          	lw	a4,172(s0)
   123dc:	0b442683          	lw	a3,180(s0)
   123e0:	0a842783          	lw	a5,168(s0)
   123e4:	40d70733          	sub	a4,a4,a3
   123e8:	00e787b3          	add	a5,a5,a4
   123ec:	0af42423          	sw	a5,168(s0)
   123f0:	02051063          	bnez	a0,12410 <stbi__pnm_skip_whitespace+0x24c>
   123f4:	02042023          	sw	zero,32(s0)
   123f8:	02040423          	sb	zero,40(s0)
   123fc:	000a0513          	mv	a0,s4
   12400:	0aa42823          	sw	a0,176(s0)
   12404:	0b442623          	sw	s4,172(s0)
   12408:	01648023          	sb	s6,0(s1)
   1240c:	eedff06f          	j	122f8 <stbi__pnm_skip_whitespace+0x134>
   12410:	02844b03          	lbu	s6,40(s0)
   12414:	00aa8533          	add	a0,s5,a0
   12418:	fe9ff06f          	j	12400 <stbi__pnm_skip_whitespace+0x23c>
   1241c:	02844b03          	lbu	s6,40(s0)
   12420:	00aa8533          	add	a0,s5,a0
   12424:	f65ff06f          	j	12388 <stbi__pnm_skip_whitespace+0x1c4>
   12428:	01042783          	lw	a5,16(s0)
   1242c:	e20794e3          	bnez	a5,12254 <stbi__pnm_skip_whitespace+0x90>
   12430:	ee1ff06f          	j	12310 <stbi__pnm_skip_whitespace+0x14c>

00012434 <stbi__gif_parse_colortable>:
   12434:	fd010113          	addi	sp,sp,-48
   12438:	02812423          	sw	s0,40(sp)
   1243c:	02912223          	sw	s1,36(sp)
   12440:	03212023          	sw	s2,32(sp)
   12444:	01412c23          	sw	s4,24(sp)
   12448:	01512a23          	sw	s5,20(sp)
   1244c:	01612823          	sw	s6,16(sp)
   12450:	01712623          	sw	s7,12(sp)
   12454:	02112623          	sw	ra,44(sp)
   12458:	01312e23          	sw	s3,28(sp)
   1245c:	00050413          	mv	s0,a0
   12460:	00060b93          	mv	s7,a2
   12464:	00068b13          	mv	s6,a3
   12468:	00058493          	mv	s1,a1
   1246c:	00000913          	li	s2,0
   12470:	02850a93          	addi	s5,a0,40
   12474:	02950a13          	addi	s4,a0,41
   12478:	0680006f          	j	124e0 <stbi__gif_parse_colortable+0xac>
   1247c:	00178713          	addi	a4,a5,1
   12480:	0ae42623          	sw	a4,172(s0)
   12484:	0007c983          	lbu	s3,0(a5)
   12488:	01348123          	sb	s3,2(s1)
   1248c:	0ac42783          	lw	a5,172(s0)
   12490:	0b042703          	lw	a4,176(s0)
   12494:	0ae7fc63          	bgeu	a5,a4,1254c <stbi__gif_parse_colortable+0x118>
   12498:	00178713          	addi	a4,a5,1
   1249c:	0ae42623          	sw	a4,172(s0)
   124a0:	0007c983          	lbu	s3,0(a5)
   124a4:	013480a3          	sb	s3,1(s1)
   124a8:	0ac42783          	lw	a5,172(s0)
   124ac:	0b042703          	lw	a4,176(s0)
   124b0:	0ee7fe63          	bgeu	a5,a4,125ac <stbi__gif_parse_colortable+0x178>
   124b4:	00178713          	addi	a4,a5,1
   124b8:	0ae42623          	sw	a4,172(s0)
   124bc:	0007c983          	lbu	s3,0(a5)
   124c0:	412b07b3          	sub	a5,s6,s2
   124c4:	00f037b3          	snez	a5,a5
   124c8:	40f007b3          	neg	a5,a5
   124cc:	01348023          	sb	s3,0(s1)
   124d0:	00f481a3          	sb	a5,3(s1)
   124d4:	00190913          	addi	s2,s2,1
   124d8:	00448493          	addi	s1,s1,4
   124dc:	152b8063          	beq	s7,s2,1261c <stbi__gif_parse_colortable+0x1e8>
   124e0:	0ac42783          	lw	a5,172(s0)
   124e4:	0b042703          	lw	a4,176(s0)
   124e8:	f8e7eae3          	bltu	a5,a4,1247c <stbi__gif_parse_colortable+0x48>
   124ec:	02042783          	lw	a5,32(s0)
   124f0:	00000993          	li	s3,0
   124f4:	f8078ae3          	beqz	a5,12488 <stbi__gif_parse_colortable+0x54>
   124f8:	01042783          	lw	a5,16(s0)
   124fc:	02442603          	lw	a2,36(s0)
   12500:	01c42503          	lw	a0,28(s0)
   12504:	000a8593          	mv	a1,s5
   12508:	000780e7          	jalr	a5
   1250c:	0ac42703          	lw	a4,172(s0)
   12510:	0b442683          	lw	a3,180(s0)
   12514:	0a842783          	lw	a5,168(s0)
   12518:	40d70733          	sub	a4,a4,a3
   1251c:	00e787b3          	add	a5,a5,a4
   12520:	0af42423          	sw	a5,168(s0)
   12524:	12051863          	bnez	a0,12654 <stbi__gif_parse_colortable+0x220>
   12528:	02042023          	sw	zero,32(s0)
   1252c:	02040423          	sb	zero,40(s0)
   12530:	000a0513          	mv	a0,s4
   12534:	0aa42823          	sw	a0,176(s0)
   12538:	0b442623          	sw	s4,172(s0)
   1253c:	01348123          	sb	s3,2(s1)
   12540:	0ac42783          	lw	a5,172(s0)
   12544:	0b042703          	lw	a4,176(s0)
   12548:	f4e7e8e3          	bltu	a5,a4,12498 <stbi__gif_parse_colortable+0x64>
   1254c:	02042783          	lw	a5,32(s0)
   12550:	00000993          	li	s3,0
   12554:	f40788e3          	beqz	a5,124a4 <stbi__gif_parse_colortable+0x70>
   12558:	01042783          	lw	a5,16(s0)
   1255c:	02442603          	lw	a2,36(s0)
   12560:	01c42503          	lw	a0,28(s0)
   12564:	000a8593          	mv	a1,s5
   12568:	000780e7          	jalr	a5
   1256c:	0ac42703          	lw	a4,172(s0)
   12570:	0b442683          	lw	a3,180(s0)
   12574:	0a842783          	lw	a5,168(s0)
   12578:	40d70733          	sub	a4,a4,a3
   1257c:	00e787b3          	add	a5,a5,a4
   12580:	0af42423          	sw	a5,168(s0)
   12584:	0c051263          	bnez	a0,12648 <stbi__gif_parse_colortable+0x214>
   12588:	02042023          	sw	zero,32(s0)
   1258c:	02040423          	sb	zero,40(s0)
   12590:	000a0513          	mv	a0,s4
   12594:	0aa42823          	sw	a0,176(s0)
   12598:	0b442623          	sw	s4,172(s0)
   1259c:	013480a3          	sb	s3,1(s1)
   125a0:	0ac42783          	lw	a5,172(s0)
   125a4:	0b042703          	lw	a4,176(s0)
   125a8:	f0e7e6e3          	bltu	a5,a4,124b4 <stbi__gif_parse_colortable+0x80>
   125ac:	02042783          	lw	a5,32(s0)
   125b0:	00000993          	li	s3,0
   125b4:	f00786e3          	beqz	a5,124c0 <stbi__gif_parse_colortable+0x8c>
   125b8:	01042783          	lw	a5,16(s0)
   125bc:	02442603          	lw	a2,36(s0)
   125c0:	01c42503          	lw	a0,28(s0)
   125c4:	000a8593          	mv	a1,s5
   125c8:	000780e7          	jalr	a5
   125cc:	0ac42703          	lw	a4,172(s0)
   125d0:	0b442683          	lw	a3,180(s0)
   125d4:	0a842783          	lw	a5,168(s0)
   125d8:	40d70733          	sub	a4,a4,a3
   125dc:	00e787b3          	add	a5,a5,a4
   125e0:	0af42423          	sw	a5,168(s0)
   125e4:	06051e63          	bnez	a0,12660 <stbi__gif_parse_colortable+0x22c>
   125e8:	02042023          	sw	zero,32(s0)
   125ec:	02040423          	sb	zero,40(s0)
   125f0:	000a0513          	mv	a0,s4
   125f4:	412b07b3          	sub	a5,s6,s2
   125f8:	00f037b3          	snez	a5,a5
   125fc:	0aa42823          	sw	a0,176(s0)
   12600:	0b442623          	sw	s4,172(s0)
   12604:	40f007b3          	neg	a5,a5
   12608:	01348023          	sb	s3,0(s1)
   1260c:	00f481a3          	sb	a5,3(s1)
   12610:	00190913          	addi	s2,s2,1
   12614:	00448493          	addi	s1,s1,4
   12618:	ed2b94e3          	bne	s7,s2,124e0 <stbi__gif_parse_colortable+0xac>
   1261c:	02c12083          	lw	ra,44(sp)
   12620:	02812403          	lw	s0,40(sp)
   12624:	02412483          	lw	s1,36(sp)
   12628:	02012903          	lw	s2,32(sp)
   1262c:	01c12983          	lw	s3,28(sp)
   12630:	01812a03          	lw	s4,24(sp)
   12634:	01412a83          	lw	s5,20(sp)
   12638:	01012b03          	lw	s6,16(sp)
   1263c:	00c12b83          	lw	s7,12(sp)
   12640:	03010113          	addi	sp,sp,48
   12644:	00008067          	ret
   12648:	02844983          	lbu	s3,40(s0)
   1264c:	00aa8533          	add	a0,s5,a0
   12650:	f45ff06f          	j	12594 <stbi__gif_parse_colortable+0x160>
   12654:	02844983          	lbu	s3,40(s0)
   12658:	00aa8533          	add	a0,s5,a0
   1265c:	ed9ff06f          	j	12534 <stbi__gif_parse_colortable+0x100>
   12660:	02844983          	lbu	s3,40(s0)
   12664:	00aa8533          	add	a0,s5,a0
   12668:	f8dff06f          	j	125f4 <stbi__gif_parse_colortable+0x1c0>

0001266c <stbi__convert_format.part.0>:
   1266c:	fd010113          	addi	sp,sp,-48
   12670:	01412c23          	sw	s4,24(sp)
   12674:	02112623          	sw	ra,44(sp)
   12678:	02812423          	sw	s0,40(sp)
   1267c:	02912223          	sw	s1,36(sp)
   12680:	03212023          	sw	s2,32(sp)
   12684:	01312e23          	sw	s3,28(sp)
   12688:	01512a23          	sw	s5,20(sp)
   1268c:	01612823          	sw	s6,16(sp)
   12690:	01712623          	sw	s7,12(sp)
   12694:	00050a13          	mv	s4,a0
   12698:	04064063          	bltz	a2,126d8 <stbi__convert_format.part.0+0x6c>
   1269c:	00068413          	mv	s0,a3
   126a0:	0206cc63          	bltz	a3,126d8 <stbi__convert_format.part.0+0x6c>
   126a4:	00060b13          	mv	s6,a2
   126a8:	00058a93          	mv	s5,a1
   126ac:	00070913          	mv	s2,a4
   126b0:	06068863          	beqz	a3,12720 <stbi__convert_format.part.0+0xb4>
   126b4:	800007b7          	lui	a5,0x80000
   126b8:	fff7c793          	not	a5,a5
   126bc:	02d7c733          	div	a4,a5,a3
   126c0:	00c74c63          	blt	a4,a2,126d8 <stbi__convert_format.part.0+0x6c>
   126c4:	00094a63          	bltz	s2,126d8 <stbi__convert_format.part.0+0x6c>
   126c8:	52090863          	beqz	s2,12bf8 <stbi__convert_format.part.0+0x58c>
   126cc:	0327c7b3          	div	a5,a5,s2
   126d0:	02c684b3          	mul	s1,a3,a2
   126d4:	5097d863          	bge	a5,s1,12be4 <stbi__convert_format.part.0+0x578>
   126d8:	000a0513          	mv	a0,s4
   126dc:	254140ef          	jal	ra,26930 <free>
   126e0:	0003c7b7          	lui	a5,0x3c
   126e4:	12878793          	addi	a5,a5,296 # 3c128 <_cmdr_inst_end>
   126e8:	00f22c23          	sw	a5,24(tp) # 18 <_ZL22stbi__g_failure_reason>
   126ec:	00000993          	li	s3,0
   126f0:	02c12083          	lw	ra,44(sp)
   126f4:	02812403          	lw	s0,40(sp)
   126f8:	02412483          	lw	s1,36(sp)
   126fc:	02012903          	lw	s2,32(sp)
   12700:	01812a03          	lw	s4,24(sp)
   12704:	01412a83          	lw	s5,20(sp)
   12708:	01012b03          	lw	s6,16(sp)
   1270c:	00c12b83          	lw	s7,12(sp)
   12710:	00098513          	mv	a0,s3
   12714:	01c12983          	lw	s3,28(sp)
   12718:	03010113          	addi	sp,sp,48
   1271c:	00008067          	ret
   12720:	fa074ce3          	bltz	a4,126d8 <stbi__convert_format.part.0+0x6c>
   12724:	00000513          	li	a0,0
   12728:	1fc140ef          	jal	ra,26924 <malloc>
   1272c:	00050993          	mv	s3,a0
   12730:	fa0504e3          	beqz	a0,126d8 <stbi__convert_format.part.0+0x6c>
   12734:	00000493          	li	s1,0
   12738:	1e090463          	beqz	s2,12920 <stbi__convert_format.part.0+0x2b4>
   1273c:	028a86b3          	mul	a3,s5,s0
   12740:	003a9713          	slli	a4,s5,0x3
   12744:	01670733          	add	a4,a4,s6
   12748:	ff670713          	addi	a4,a4,-10
   1274c:	0003c7b7          	lui	a5,0x3c
   12750:	00141f13          	slli	t5,s0,0x1
   12754:	008a0333          	add	t1,s4,s0
   12758:	00271513          	slli	a0,a4,0x2
   1275c:	1e878793          	addi	a5,a5,488 # 3c1e8 <_cmdr_inst_end+0xc0>
   12760:	01e988b3          	add	a7,s3,t5
   12764:	00830833          	add	a6,t1,s0
   12768:	00898e33          	add	t3,s3,s0
   1276c:	00000e93          	li	t4,0
   12770:	01900f93          	li	t6,25
   12774:	00f50533          	add	a0,a0,a5
   12778:	41e80633          	sub	a2,a6,t5
   1277c:	41e887b3          	sub	a5,a7,t5
   12780:	00efe663          	bltu	t6,a4,1278c <stbi__convert_format.part.0+0x120>
   12784:	00052583          	lw	a1,0(a0)
   12788:	00058067          	jr	a1
   1278c:	000a0513          	mv	a0,s4
   12790:	1a0140ef          	jal	ra,26930 <free>
   12794:	00098513          	mv	a0,s3
   12798:	198140ef          	jal	ra,26930 <free>
   1279c:	0003c7b7          	lui	a5,0x3c
   127a0:	15878793          	addi	a5,a5,344 # 3c158 <_cmdr_inst_end+0x30>
   127a4:	f45ff06f          	j	126e8 <stbi__convert_format.part.0+0x7c>
   127a8:	001e8e93          	addi	t4,t4,1
   127ac:	009888b3          	add	a7,a7,s1
   127b0:	00d30333          	add	t1,t1,a3
   127b4:	00d80833          	add	a6,a6,a3
   127b8:	009e0e33          	add	t3,t3,s1
   127bc:	17d90263          	beq	s2,t4,12920 <stbi__convert_format.part.0+0x2b4>
   127c0:	41e80633          	sub	a2,a6,t5
   127c4:	41e887b3          	sub	a5,a7,t5
   127c8:	14040063          	beqz	s0,12908 <stbi__convert_format.part.0+0x29c>
   127cc:	011400b3          	add	ra,s0,a7
   127d0:	00064383          	lbu	t2,0(a2)
   127d4:	00164283          	lbu	t0,1(a2)
   127d8:	00264583          	lbu	a1,2(a2)
   127dc:	00778023          	sb	t2,0(a5)
   127e0:	005780a3          	sb	t0,1(a5)
   127e4:	00b78123          	sb	a1,2(a5)
   127e8:	00378793          	addi	a5,a5,3
   127ec:	00460613          	addi	a2,a2,4
   127f0:	fe1790e3          	bne	a5,ra,127d0 <stbi__convert_format.part.0+0x164>
   127f4:	fb5ff06f          	j	127a8 <stbi__convert_format.part.0+0x13c>
   127f8:	001e8e93          	addi	t4,t4,1
   127fc:	009888b3          	add	a7,a7,s1
   12800:	00d30333          	add	t1,t1,a3
   12804:	00d60833          	add	a6,a2,a3
   12808:	009e0e33          	add	t3,t3,s1
   1280c:	11d90a63          	beq	s2,t4,12920 <stbi__convert_format.part.0+0x2b4>
   12810:	41e80633          	sub	a2,a6,t5
   12814:	41e887b3          	sub	a5,a7,t5
   12818:	0e040863          	beqz	s0,12908 <stbi__convert_format.part.0+0x29c>
   1281c:	00064583          	lbu	a1,0(a2)
   12820:	00164283          	lbu	t0,1(a2)
   12824:	00260613          	addi	a2,a2,2
   12828:	00b78123          	sb	a1,2(a5)
   1282c:	00b780a3          	sb	a1,1(a5)
   12830:	00b78023          	sb	a1,0(a5)
   12834:	005781a3          	sb	t0,3(a5)
   12838:	00478793          	addi	a5,a5,4
   1283c:	ff0610e3          	bne	a2,a6,1281c <stbi__convert_format.part.0+0x1b0>
   12840:	fb9ff06f          	j	127f8 <stbi__convert_format.part.0+0x18c>
   12844:	001e8e93          	addi	t4,t4,1
   12848:	009888b3          	add	a7,a7,s1
   1284c:	00d30333          	add	t1,t1,a3
   12850:	00d60833          	add	a6,a2,a3
   12854:	009e0e33          	add	t3,t3,s1
   12858:	0dd90463          	beq	s2,t4,12920 <stbi__convert_format.part.0+0x2b4>
   1285c:	41e80633          	sub	a2,a6,t5
   12860:	41e887b3          	sub	a5,a7,t5
   12864:	0a040263          	beqz	s0,12908 <stbi__convert_format.part.0+0x29c>
   12868:	00064583          	lbu	a1,0(a2)
   1286c:	00260613          	addi	a2,a2,2
   12870:	00378793          	addi	a5,a5,3
   12874:	feb78fa3          	sb	a1,-1(a5)
   12878:	feb78f23          	sb	a1,-2(a5)
   1287c:	feb78ea3          	sb	a1,-3(a5)
   12880:	ff0614e3          	bne	a2,a6,12868 <stbi__convert_format.part.0+0x1fc>
   12884:	fc1ff06f          	j	12844 <stbi__convert_format.part.0+0x1d8>
   12888:	001e8e93          	addi	t4,t4,1
   1288c:	009888b3          	add	a7,a7,s1
   12890:	00d30333          	add	t1,t1,a3
   12894:	00d60833          	add	a6,a2,a3
   12898:	009e0e33          	add	t3,t3,s1
   1289c:	09d90263          	beq	s2,t4,12920 <stbi__convert_format.part.0+0x2b4>
   128a0:	41e80633          	sub	a2,a6,t5
   128a4:	41e887b3          	sub	a5,a7,t5
   128a8:	06040063          	beqz	s0,12908 <stbi__convert_format.part.0+0x29c>
   128ac:	00064583          	lbu	a1,0(a2)
   128b0:	00260613          	addi	a2,a2,2
   128b4:	00178793          	addi	a5,a5,1
   128b8:	feb78fa3          	sb	a1,-1(a5)
   128bc:	ff0618e3          	bne	a2,a6,128ac <stbi__convert_format.part.0+0x240>
   128c0:	fc9ff06f          	j	12888 <stbi__convert_format.part.0+0x21c>
   128c4:	001e8e93          	addi	t4,t4,1
   128c8:	009888b3          	add	a7,a7,s1
   128cc:	00d60333          	add	t1,a2,a3
   128d0:	00d80833          	add	a6,a6,a3
   128d4:	009e0e33          	add	t3,t3,s1
   128d8:	05d90463          	beq	s2,t4,12920 <stbi__convert_format.part.0+0x2b4>
   128dc:	41e80633          	sub	a2,a6,t5
   128e0:	41e887b3          	sub	a5,a7,t5
   128e4:	02040263          	beqz	s0,12908 <stbi__convert_format.part.0+0x29c>
   128e8:	00064583          	lbu	a1,0(a2)
   128ec:	00160613          	addi	a2,a2,1
   128f0:	00378793          	addi	a5,a5,3
   128f4:	feb78fa3          	sb	a1,-1(a5)
   128f8:	feb78f23          	sb	a1,-2(a5)
   128fc:	feb78ea3          	sb	a1,-3(a5)
   12900:	fe6614e3          	bne	a2,t1,128e8 <stbi__convert_format.part.0+0x27c>
   12904:	fc1ff06f          	j	128c4 <stbi__convert_format.part.0+0x258>
   12908:	001e8e93          	addi	t4,t4,1
   1290c:	009888b3          	add	a7,a7,s1
   12910:	00d30333          	add	t1,t1,a3
   12914:	00d80833          	add	a6,a6,a3
   12918:	009e0e33          	add	t3,t3,s1
   1291c:	e5d91ee3          	bne	s2,t4,12778 <stbi__convert_format.part.0+0x10c>
   12920:	000a0513          	mv	a0,s4
   12924:	00c140ef          	jal	ra,26930 <free>
   12928:	dc9ff06f          	j	126f0 <stbi__convert_format.part.0+0x84>
   1292c:	04d00093          	li	ra,77
   12930:	09600393          	li	t2,150
   12934:	fc040ae3          	beqz	s0,12908 <stbi__convert_format.part.0+0x29c>
   12938:	00064583          	lbu	a1,0(a2)
   1293c:	00164a83          	lbu	s5,1(a2)
   12940:	00264b03          	lbu	s6,2(a2)
   12944:	021585b3          	mul	a1,a1,ra
   12948:	00364b83          	lbu	s7,3(a2)
   1294c:	003b1293          	slli	t0,s6,0x3
   12950:	416282b3          	sub	t0,t0,s6
   12954:	00229293          	slli	t0,t0,0x2
   12958:	016282b3          	add	t0,t0,s6
   1295c:	017780a3          	sb	s7,1(a5)
   12960:	00278793          	addi	a5,a5,2
   12964:	00460613          	addi	a2,a2,4
   12968:	027a8ab3          	mul	s5,s5,t2
   1296c:	015585b3          	add	a1,a1,s5
   12970:	005585b3          	add	a1,a1,t0
   12974:	4085d593          	srai	a1,a1,0x8
   12978:	feb78f23          	sb	a1,-2(a5)
   1297c:	fb179ee3          	bne	a5,a7,12938 <stbi__convert_format.part.0+0x2cc>
   12980:	001e8e93          	addi	t4,t4,1
   12984:	009788b3          	add	a7,a5,s1
   12988:	00d30333          	add	t1,t1,a3
   1298c:	00d80833          	add	a6,a6,a3
   12990:	009e0e33          	add	t3,t3,s1
   12994:	f9d906e3          	beq	s2,t4,12920 <stbi__convert_format.part.0+0x2b4>
   12998:	41e80633          	sub	a2,a6,t5
   1299c:	41e887b3          	sub	a5,a7,t5
   129a0:	f95ff06f          	j	12934 <stbi__convert_format.part.0+0x2c8>
   129a4:	04d00093          	li	ra,77
   129a8:	09600393          	li	t2,150
   129ac:	f4040ee3          	beqz	s0,12908 <stbi__convert_format.part.0+0x29c>
   129b0:	00064583          	lbu	a1,0(a2)
   129b4:	00164a83          	lbu	s5,1(a2)
   129b8:	00264b03          	lbu	s6,2(a2)
   129bc:	021585b3          	mul	a1,a1,ra
   129c0:	00178793          	addi	a5,a5,1
   129c4:	003b1293          	slli	t0,s6,0x3
   129c8:	416282b3          	sub	t0,t0,s6
   129cc:	00229293          	slli	t0,t0,0x2
   129d0:	016282b3          	add	t0,t0,s6
   129d4:	00460613          	addi	a2,a2,4
   129d8:	027a8ab3          	mul	s5,s5,t2
   129dc:	015585b3          	add	a1,a1,s5
   129e0:	005585b3          	add	a1,a1,t0
   129e4:	4085d593          	srai	a1,a1,0x8
   129e8:	feb78fa3          	sb	a1,-1(a5)
   129ec:	fdc792e3          	bne	a5,t3,129b0 <stbi__convert_format.part.0+0x344>
   129f0:	001e8e93          	addi	t4,t4,1
   129f4:	009888b3          	add	a7,a7,s1
   129f8:	00d30333          	add	t1,t1,a3
   129fc:	00d80833          	add	a6,a6,a3
   12a00:	00978e33          	add	t3,a5,s1
   12a04:	f1d90ee3          	beq	s2,t4,12920 <stbi__convert_format.part.0+0x2b4>
   12a08:	41e80633          	sub	a2,a6,t5
   12a0c:	41e887b3          	sub	a5,a7,t5
   12a10:	f9dff06f          	j	129ac <stbi__convert_format.part.0+0x340>
   12a14:	fff00a93          	li	s5,-1
   12a18:	ee0408e3          	beqz	s0,12908 <stbi__convert_format.part.0+0x29c>
   12a1c:	010400b3          	add	ra,s0,a6
   12a20:	00064383          	lbu	t2,0(a2)
   12a24:	00164283          	lbu	t0,1(a2)
   12a28:	00264583          	lbu	a1,2(a2)
   12a2c:	00778023          	sb	t2,0(a5)
   12a30:	005780a3          	sb	t0,1(a5)
   12a34:	00b78123          	sb	a1,2(a5)
   12a38:	015781a3          	sb	s5,3(a5)
   12a3c:	00360613          	addi	a2,a2,3
   12a40:	00478793          	addi	a5,a5,4
   12a44:	fc161ee3          	bne	a2,ra,12a20 <stbi__convert_format.part.0+0x3b4>
   12a48:	001e8e93          	addi	t4,t4,1
   12a4c:	009888b3          	add	a7,a7,s1
   12a50:	00d30333          	add	t1,t1,a3
   12a54:	00d80833          	add	a6,a6,a3
   12a58:	009e0e33          	add	t3,t3,s1
   12a5c:	edd902e3          	beq	s2,t4,12920 <stbi__convert_format.part.0+0x2b4>
   12a60:	41e80633          	sub	a2,a6,t5
   12a64:	41e887b3          	sub	a5,a7,t5
   12a68:	fb1ff06f          	j	12a18 <stbi__convert_format.part.0+0x3ac>
   12a6c:	04d00a93          	li	s5,77
   12a70:	09600093          	li	ra,150
   12a74:	fff00393          	li	t2,-1
   12a78:	e80408e3          	beqz	s0,12908 <stbi__convert_format.part.0+0x29c>
   12a7c:	00064583          	lbu	a1,0(a2)
   12a80:	00164b03          	lbu	s6,1(a2)
   12a84:	00264b83          	lbu	s7,2(a2)
   12a88:	035585b3          	mul	a1,a1,s5
   12a8c:	007780a3          	sb	t2,1(a5)
   12a90:	003b9293          	slli	t0,s7,0x3
   12a94:	417282b3          	sub	t0,t0,s7
   12a98:	00229293          	slli	t0,t0,0x2
   12a9c:	017282b3          	add	t0,t0,s7
   12aa0:	00278793          	addi	a5,a5,2
   12aa4:	00360613          	addi	a2,a2,3
   12aa8:	021b0b33          	mul	s6,s6,ra
   12aac:	016585b3          	add	a1,a1,s6
   12ab0:	005585b3          	add	a1,a1,t0
   12ab4:	4085d593          	srai	a1,a1,0x8
   12ab8:	feb78f23          	sb	a1,-2(a5)
   12abc:	fd1790e3          	bne	a5,a7,12a7c <stbi__convert_format.part.0+0x410>
   12ac0:	001e8e93          	addi	t4,t4,1
   12ac4:	009788b3          	add	a7,a5,s1
   12ac8:	00d30333          	add	t1,t1,a3
   12acc:	00d80833          	add	a6,a6,a3
   12ad0:	009e0e33          	add	t3,t3,s1
   12ad4:	e5d906e3          	beq	s2,t4,12920 <stbi__convert_format.part.0+0x2b4>
   12ad8:	41e80633          	sub	a2,a6,t5
   12adc:	41e887b3          	sub	a5,a7,t5
   12ae0:	f99ff06f          	j	12a78 <stbi__convert_format.part.0+0x40c>
   12ae4:	04d00093          	li	ra,77
   12ae8:	09600393          	li	t2,150
   12aec:	e0040ee3          	beqz	s0,12908 <stbi__convert_format.part.0+0x29c>
   12af0:	00064583          	lbu	a1,0(a2)
   12af4:	00164a83          	lbu	s5,1(a2)
   12af8:	00264b03          	lbu	s6,2(a2)
   12afc:	021585b3          	mul	a1,a1,ra
   12b00:	00178793          	addi	a5,a5,1
   12b04:	003b1293          	slli	t0,s6,0x3
   12b08:	416282b3          	sub	t0,t0,s6
   12b0c:	00229293          	slli	t0,t0,0x2
   12b10:	016282b3          	add	t0,t0,s6
   12b14:	00360613          	addi	a2,a2,3
   12b18:	027a8ab3          	mul	s5,s5,t2
   12b1c:	015585b3          	add	a1,a1,s5
   12b20:	005585b3          	add	a1,a1,t0
   12b24:	4085d593          	srai	a1,a1,0x8
   12b28:	feb78fa3          	sb	a1,-1(a5)
   12b2c:	fdc792e3          	bne	a5,t3,12af0 <stbi__convert_format.part.0+0x484>
   12b30:	001e8e93          	addi	t4,t4,1
   12b34:	009888b3          	add	a7,a7,s1
   12b38:	00d30333          	add	t1,t1,a3
   12b3c:	00d80833          	add	a6,a6,a3
   12b40:	00978e33          	add	t3,a5,s1
   12b44:	ddd90ee3          	beq	s2,t4,12920 <stbi__convert_format.part.0+0x2b4>
   12b48:	41e80633          	sub	a2,a6,t5
   12b4c:	41e887b3          	sub	a5,a7,t5
   12b50:	f9dff06f          	j	12aec <stbi__convert_format.part.0+0x480>
   12b54:	fff00293          	li	t0,-1
   12b58:	da0408e3          	beqz	s0,12908 <stbi__convert_format.part.0+0x29c>
   12b5c:	00064583          	lbu	a1,0(a2)
   12b60:	005781a3          	sb	t0,3(a5)
   12b64:	00160613          	addi	a2,a2,1
   12b68:	00b78123          	sb	a1,2(a5)
   12b6c:	00b780a3          	sb	a1,1(a5)
   12b70:	00b78023          	sb	a1,0(a5)
   12b74:	00478793          	addi	a5,a5,4
   12b78:	fe6612e3          	bne	a2,t1,12b5c <stbi__convert_format.part.0+0x4f0>
   12b7c:	001e8e93          	addi	t4,t4,1
   12b80:	009888b3          	add	a7,a7,s1
   12b84:	00d60333          	add	t1,a2,a3
   12b88:	00d80833          	add	a6,a6,a3
   12b8c:	009e0e33          	add	t3,t3,s1
   12b90:	d9d908e3          	beq	s2,t4,12920 <stbi__convert_format.part.0+0x2b4>
   12b94:	41e80633          	sub	a2,a6,t5
   12b98:	41e887b3          	sub	a5,a7,t5
   12b9c:	fbdff06f          	j	12b58 <stbi__convert_format.part.0+0x4ec>
   12ba0:	fff00293          	li	t0,-1
   12ba4:	d60402e3          	beqz	s0,12908 <stbi__convert_format.part.0+0x29c>
   12ba8:	00064583          	lbu	a1,0(a2)
   12bac:	005780a3          	sb	t0,1(a5)
   12bb0:	00278793          	addi	a5,a5,2
   12bb4:	feb78f23          	sb	a1,-2(a5)
   12bb8:	00160613          	addi	a2,a2,1
   12bbc:	ff1796e3          	bne	a5,a7,12ba8 <stbi__convert_format.part.0+0x53c>
   12bc0:	001e8e93          	addi	t4,t4,1
   12bc4:	009788b3          	add	a7,a5,s1
   12bc8:	00d30333          	add	t1,t1,a3
   12bcc:	00d80833          	add	a6,a6,a3
   12bd0:	009e0e33          	add	t3,t3,s1
   12bd4:	d5d906e3          	beq	s2,t4,12920 <stbi__convert_format.part.0+0x2b4>
   12bd8:	41e80633          	sub	a2,a6,t5
   12bdc:	41e887b3          	sub	a5,a7,t5
   12be0:	fc5ff06f          	j	12ba4 <stbi__convert_format.part.0+0x538>
   12be4:	02990533          	mul	a0,s2,s1
   12be8:	53d130ef          	jal	ra,26924 <malloc>
   12bec:	00050993          	mv	s3,a0
   12bf0:	b40516e3          	bnez	a0,1273c <stbi__convert_format.part.0+0xd0>
   12bf4:	ae5ff06f          	j	126d8 <stbi__convert_format.part.0+0x6c>
   12bf8:	00000513          	li	a0,0
   12bfc:	529130ef          	jal	ra,26924 <malloc>
   12c00:	00050993          	mv	s3,a0
   12c04:	d0051ee3          	bnez	a0,12920 <stbi__convert_format.part.0+0x2b4>
   12c08:	ad1ff06f          	j	126d8 <stbi__convert_format.part.0+0x6c>

00012c0c <stbi__pnm_getinteger>:
   12c0c:	fe010113          	addi	sp,sp,-32
   12c10:	01212823          	sw	s2,16(sp)
   12c14:	0cccd937          	lui	s2,0xcccd
   12c18:	00812c23          	sw	s0,24(sp)
   12c1c:	00912a23          	sw	s1,20(sp)
   12c20:	01312623          	sw	s3,12(sp)
   12c24:	01412423          	sw	s4,8(sp)
   12c28:	00112e23          	sw	ra,28(sp)
   12c2c:	01512223          	sw	s5,4(sp)
   12c30:	00050413          	mv	s0,a0
   12c34:	00058a13          	mv	s4,a1
   12c38:	00000493          	li	s1,0
   12c3c:	ccc90913          	addi	s2,s2,-820 # ccccccc <_end+0x18ccccc>
   12c40:	00900993          	li	s3,9
   12c44:	01042783          	lw	a5,16(s0)
   12c48:	00078e63          	beqz	a5,12c64 <stbi__pnm_getinteger+0x58>
   12c4c:	01842783          	lw	a5,24(s0)
   12c50:	01c42503          	lw	a0,28(s0)
   12c54:	000780e7          	jalr	a5
   12c58:	08050863          	beqz	a0,12ce8 <stbi__pnm_getinteger+0xdc>
   12c5c:	02042783          	lw	a5,32(s0)
   12c60:	06078063          	beqz	a5,12cc0 <stbi__pnm_getinteger+0xb4>
   12c64:	0ac42783          	lw	a5,172(s0)
   12c68:	0b042703          	lw	a4,176(s0)
   12c6c:	04e7fa63          	bgeu	a5,a4,12cc0 <stbi__pnm_getinteger+0xb4>
   12c70:	000a4703          	lbu	a4,0(s4)
   12c74:	fd070713          	addi	a4,a4,-48
   12c78:	0ff77693          	zext.b	a3,a4
   12c7c:	04d9e263          	bltu	s3,a3,12cc0 <stbi__pnm_getinteger+0xb4>
   12c80:	00249693          	slli	a3,s1,0x2
   12c84:	009686b3          	add	a3,a3,s1
   12c88:	00169693          	slli	a3,a3,0x1
   12c8c:	00d704b3          	add	s1,a4,a3
   12c90:	00178713          	addi	a4,a5,1
   12c94:	0ae42623          	sw	a4,172(s0)
   12c98:	0007c783          	lbu	a5,0(a5)
   12c9c:	00fa0023          	sb	a5,0(s4)
   12ca0:	00994863          	blt	s2,s1,12cb0 <stbi__pnm_getinteger+0xa4>
   12ca4:	fb2490e3          	bne	s1,s2,12c44 <stbi__pnm_getinteger+0x38>
   12ca8:	03700713          	li	a4,55
   12cac:	f8f77ce3          	bgeu	a4,a5,12c44 <stbi__pnm_getinteger+0x38>
   12cb0:	0003c737          	lui	a4,0x3c
   12cb4:	25070713          	addi	a4,a4,592 # 3c250 <_cmdr_inst_end+0x128>
   12cb8:	00e22c23          	sw	a4,24(tp) # 18 <_ZL22stbi__g_failure_reason>
   12cbc:	00000493          	li	s1,0
   12cc0:	01c12083          	lw	ra,28(sp)
   12cc4:	01812403          	lw	s0,24(sp)
   12cc8:	01012903          	lw	s2,16(sp)
   12ccc:	00c12983          	lw	s3,12(sp)
   12cd0:	00812a03          	lw	s4,8(sp)
   12cd4:	00412a83          	lw	s5,4(sp)
   12cd8:	00048513          	mv	a0,s1
   12cdc:	01412483          	lw	s1,20(sp)
   12ce0:	02010113          	addi	sp,sp,32
   12ce4:	00008067          	ret
   12ce8:	000a4683          	lbu	a3,0(s4)
   12cec:	fd068693          	addi	a3,a3,-48
   12cf0:	0ff6f793          	zext.b	a5,a3
   12cf4:	fcf9e6e3          	bltu	s3,a5,12cc0 <stbi__pnm_getinteger+0xb4>
   12cf8:	00249713          	slli	a4,s1,0x2
   12cfc:	0ac42783          	lw	a5,172(s0)
   12d00:	0b042603          	lw	a2,176(s0)
   12d04:	00970733          	add	a4,a4,s1
   12d08:	00171713          	slli	a4,a4,0x1
   12d0c:	00e684b3          	add	s1,a3,a4
   12d10:	f8c7e0e3          	bltu	a5,a2,12c90 <stbi__pnm_getinteger+0x84>
   12d14:	02042783          	lw	a5,32(s0)
   12d18:	00079863          	bnez	a5,12d28 <stbi__pnm_getinteger+0x11c>
   12d1c:	000a0023          	sb	zero,0(s4)
   12d20:	f29952e3          	bge	s2,s1,12c44 <stbi__pnm_getinteger+0x38>
   12d24:	f8dff06f          	j	12cb0 <stbi__pnm_getinteger+0xa4>
   12d28:	01042783          	lw	a5,16(s0)
   12d2c:	02442603          	lw	a2,36(s0)
   12d30:	01c42503          	lw	a0,28(s0)
   12d34:	02840a93          	addi	s5,s0,40
   12d38:	000a8593          	mv	a1,s5
   12d3c:	000780e7          	jalr	a5
   12d40:	0ac42703          	lw	a4,172(s0)
   12d44:	0b442683          	lw	a3,180(s0)
   12d48:	0a842783          	lw	a5,168(s0)
   12d4c:	40d70733          	sub	a4,a4,a3
   12d50:	00e787b3          	add	a5,a5,a4
   12d54:	0af42423          	sw	a5,168(s0)
   12d58:	02940713          	addi	a4,s0,41
   12d5c:	00050c63          	beqz	a0,12d74 <stbi__pnm_getinteger+0x168>
   12d60:	02844783          	lbu	a5,40(s0)
   12d64:	00aa8ab3          	add	s5,s5,a0
   12d68:	0b542823          	sw	s5,176(s0)
   12d6c:	0ae42623          	sw	a4,172(s0)
   12d70:	f2dff06f          	j	12c9c <stbi__pnm_getinteger+0x90>
   12d74:	02042023          	sw	zero,32(s0)
   12d78:	02040423          	sb	zero,40(s0)
   12d7c:	00070a93          	mv	s5,a4
   12d80:	00000793          	li	a5,0
   12d84:	fe5ff06f          	j	12d68 <stbi__pnm_getinteger+0x15c>

00012d88 <stbi__create_png_image_raw>:
   12d88:	f8010113          	addi	sp,sp,-128
   12d8c:	06912a23          	sw	s1,116(sp)
   12d90:	07212823          	sw	s2,112(sp)
   12d94:	07312623          	sw	s3,108(sp)
   12d98:	07412423          	sw	s4,104(sp)
   12d9c:	07512223          	sw	s5,100(sp)
   12da0:	07612023          	sw	s6,96(sp)
   12da4:	05812c23          	sw	s8,88(sp)
   12da8:	05912a23          	sw	s9,84(sp)
   12dac:	00080993          	mv	s3,a6
   12db0:	06112e23          	sw	ra,124(sp)
   12db4:	06812c23          	sw	s0,120(sp)
   12db8:	05712e23          	sw	s7,92(sp)
   12dbc:	05a12823          	sw	s10,80(sp)
   12dc0:	05b12623          	sw	s11,76(sp)
   12dc4:	01000813          	li	a6,16
   12dc8:	00050a13          	mv	s4,a0
   12dcc:	00058a93          	mv	s5,a1
   12dd0:	00060c93          	mv	s9,a2
   12dd4:	00068b13          	mv	s6,a3
   12dd8:	00070913          	mv	s2,a4
   12ddc:	00078493          	mv	s1,a5
   12de0:	00088c13          	mv	s8,a7
   12de4:	09098c63          	beq	s3,a6,12e7c <stbi__create_png_image_raw+0xf4>
   12de8:	00068713          	mv	a4,a3
   12dec:	00100d93          	li	s11,1
   12df0:	00100413          	li	s0,1
   12df4:	000a2683          	lw	a3,0(s4)
   12df8:	009967b3          	or	a5,s2,s1
   12dfc:	0086ad03          	lw	s10,8(a3)
   12e00:	0207c663          	bltz	a5,12e2c <stbi__create_png_image_raw+0xa4>
   12e04:	08048463          	beqz	s1,12e8c <stbi__create_png_image_raw+0x104>
   12e08:	800007b7          	lui	a5,0x80000
   12e0c:	fff7c793          	not	a5,a5
   12e10:	0297c6b3          	div	a3,a5,s1
   12e14:	0126cc63          	blt	a3,s2,12e2c <stbi__create_png_image_raw+0xa4>
   12e18:	00074a63          	bltz	a4,12e2c <stbi__create_png_image_raw+0xa4>
   12e1c:	03248533          	mul	a0,s1,s2
   12e20:	06070a63          	beqz	a4,12e94 <stbi__create_png_image_raw+0x10c>
   12e24:	02e7c7b3          	div	a5,a5,a4
   12e28:	06a7d663          	bge	a5,a0,12e94 <stbi__create_png_image_raw+0x10c>
   12e2c:	000a2623          	sw	zero,12(s4)
   12e30:	0003c737          	lui	a4,0x3c
   12e34:	12870713          	addi	a4,a4,296 # 3c128 <_cmdr_inst_end>
   12e38:	00e22c23          	sw	a4,24(tp) # 18 <_ZL22stbi__g_failure_reason>
   12e3c:	00000513          	li	a0,0
   12e40:	07c12083          	lw	ra,124(sp)
   12e44:	07812403          	lw	s0,120(sp)
   12e48:	07412483          	lw	s1,116(sp)
   12e4c:	07012903          	lw	s2,112(sp)
   12e50:	06c12983          	lw	s3,108(sp)
   12e54:	06812a03          	lw	s4,104(sp)
   12e58:	06412a83          	lw	s5,100(sp)
   12e5c:	06012b03          	lw	s6,96(sp)
   12e60:	05c12b83          	lw	s7,92(sp)
   12e64:	05812c03          	lw	s8,88(sp)
   12e68:	05412c83          	lw	s9,84(sp)
   12e6c:	05012d03          	lw	s10,80(sp)
   12e70:	04c12d83          	lw	s11,76(sp)
   12e74:	08010113          	addi	sp,sp,128
   12e78:	00008067          	ret
   12e7c:	00169713          	slli	a4,a3,0x1
   12e80:	00200d93          	li	s11,2
   12e84:	00200413          	li	s0,2
   12e88:	f6dff06f          	j	12df4 <stbi__create_png_image_raw+0x6c>
   12e8c:	00000513          	li	a0,0
   12e90:	f8074ee3          	bltz	a4,12e2c <stbi__create_png_image_raw+0xa4>
   12e94:	02a70533          	mul	a0,a4,a0
   12e98:	28d130ef          	jal	ra,26924 <malloc>
   12e9c:	00aa2623          	sw	a0,12(s4)
   12ea0:	00050793          	mv	a5,a0
   12ea4:	f80506e3          	beqz	a0,12e30 <stbi__create_png_image_raw+0xa8>
   12ea8:	020d4663          	bltz	s10,12ed4 <stbi__create_png_image_raw+0x14c>
   12eac:	02090c63          	beqz	s2,12ee4 <stbi__create_png_image_raw+0x15c>
   12eb0:	80000637          	lui	a2,0x80000
   12eb4:	fff64693          	not	a3,a2
   12eb8:	0326c733          	div	a4,a3,s2
   12ebc:	01a74c63          	blt	a4,s10,12ed4 <stbi__create_png_image_raw+0x14c>
   12ec0:	0009ca63          	bltz	s3,12ed4 <stbi__create_png_image_raw+0x14c>
   12ec4:	02098263          	beqz	s3,12ee8 <stbi__create_png_image_raw+0x160>
   12ec8:	0336c5b3          	div	a1,a3,s3
   12ecc:	032d0733          	mul	a4,s10,s2
   12ed0:	14e5de63          	bge	a1,a4,1302c <stbi__create_png_image_raw+0x2a4>
   12ed4:	0003c737          	lui	a4,0x3c
   12ed8:	26870713          	addi	a4,a4,616 # 3c268 <_cmdr_inst_end+0x140>
   12edc:	00e22c23          	sw	a4,24(tp) # 18 <_ZL22stbi__g_failure_reason>
   12ee0:	f5dff06f          	j	12e3c <stbi__create_png_image_raw+0xb4>
   12ee4:	fe09c8e3          	bltz	s3,12ed4 <stbi__create_png_image_raw+0x14c>
   12ee8:	032d0733          	mul	a4,s10,s2
   12eec:	02e98bb3          	mul	s7,s3,a4
   12ef0:	007b8b93          	addi	s7,s7,7
   12ef4:	003bdb93          	srli	s7,s7,0x3
   12ef8:	000b8893          	mv	a7,s7
   12efc:	16049463          	bnez	s1,13064 <stbi__create_png_image_raw+0x2dc>
   12f00:	001b9513          	slli	a0,s7,0x1
   12f04:	00f12823          	sw	a5,16(sp)
   12f08:	00e12623          	sw	a4,12(sp)
   12f0c:	01112423          	sw	a7,8(sp)
   12f10:	215130ef          	jal	ra,26924 <malloc>
   12f14:	00050e93          	mv	t4,a0
   12f18:	f0050ce3          	beqz	a0,12e30 <stbi__create_png_image_raw+0xa8>
   12f1c:	00700693          	li	a3,7
   12f20:	00812883          	lw	a7,8(sp)
   12f24:	00c12703          	lw	a4,12(sp)
   12f28:	01012783          	lw	a5,16(sp)
   12f2c:	00100c93          	li	s9,1
   12f30:	0136d663          	bge	a3,s3,12f3c <stbi__create_png_image_raw+0x1b4>
   12f34:	03a40cb3          	mul	s9,s0,s10
   12f38:	00090893          	mv	a7,s2
   12f3c:	0a0486e3          	beqz	s1,137e8 <stbi__create_png_image_raw+0xa60>
   12f40:	fffc8693          	addi	a3,s9,-1
   12f44:	02d12623          	sw	a3,44(sp)
   12f48:	0003d637          	lui	a2,0x3d
   12f4c:	8f860613          	addi	a2,a2,-1800 # 3c8f8 <_ZL23stbi__depth_scale_table>
   12f50:	01360633          	add	a2,a2,s3
   12f54:	9bc18593          	addi	a1,gp,-1604 # 4081c <_ZL16first_row_filter>
   12f58:	032b06b3          	mul	a3,s6,s2
   12f5c:	02b12223          	sw	a1,36(sp)
   12f60:	02c12423          	sw	a2,40(sp)
   12f64:	0003c5b7          	lui	a1,0x3c
   12f68:	00000e13          	li	t3,0
   12f6c:	00000813          	li	a6,0
   12f70:	29858593          	addi	a1,a1,664 # 3c298 <_cmdr_inst_end+0x170>
   12f74:	01412c23          	sw	s4,24(sp)
   12f78:	01612e23          	sw	s6,28(sp)
   12f7c:	00912a23          	sw	s1,20(sp)
   12f80:	031c88b3          	mul	a7,s9,a7
   12f84:	00098493          	mv	s1,s3
   12f88:	03812023          	sw	s8,32(sp)
   12f8c:	001a8a93          	addi	s5,s5,1
   12f90:	00b12823          	sw	a1,16(sp)
   12f94:	00078413          	mv	s0,a5
   12f98:	000e8a13          	mv	s4,t4
   12f9c:	00070993          	mv	s3,a4
   12fa0:	00080c13          	mv	s8,a6
   12fa4:	03b686b3          	mul	a3,a3,s11
   12fa8:	00188613          	addi	a2,a7,1
   12fac:	00c12623          	sw	a2,12(sp)
   12fb0:	fff88613          	addi	a2,a7,-1
   12fb4:	000b8d93          	mv	s11,s7
   12fb8:	02c12a23          	sw	a2,52(sp)
   12fbc:	000e0b93          	mv	s7,t3
   12fc0:	00088b13          	mv	s6,a7
   12fc4:	00d12423          	sw	a3,8(sp)
   12fc8:	419886b3          	sub	a3,a7,s9
   12fcc:	02d12e23          	sw	a3,60(sp)
   12fd0:	fff68693          	addi	a3,a3,-1
   12fd4:	02d12c23          	sw	a3,56(sp)
   12fd8:	001c7793          	andi	a5,s8,1
   12fdc:	0017c593          	xori	a1,a5,1
   12fe0:	03b585b3          	mul	a1,a1,s11
   12fe4:	fffac603          	lbu	a2,-1(s5)
   12fe8:	00400713          	li	a4,4
   12fec:	01740433          	add	s0,s0,s7
   12ff0:	03b787b3          	mul	a5,a5,s11
   12ff4:	00ba06b3          	add	a3,s4,a1
   12ff8:	00fa0333          	add	t1,s4,a5
   12ffc:	7ec74e63          	blt	a4,a2,137f8 <stbi__create_png_image_raw+0xa70>
   13000:	000c1863          	bnez	s8,13010 <stbi__create_png_image_raw+0x288>
   13004:	02412703          	lw	a4,36(sp)
   13008:	00c70633          	add	a2,a4,a2
   1300c:	00064603          	lbu	a2,0(a2)
   13010:	00500513          	li	a0,5
   13014:	36c56063          	bltu	a0,a2,13374 <stbi__create_png_image_raw+0x5ec>
   13018:	01012703          	lw	a4,16(sp)
   1301c:	00261613          	slli	a2,a2,0x2
   13020:	00e60633          	add	a2,a2,a4
   13024:	00062603          	lw	a2,0(a2)
   13028:	00060067          	jr	a2
   1302c:	02e98bb3          	mul	s7,s3,a4
   13030:	ff864613          	xori	a2,a2,-8
   13034:	eb7640e3          	blt	a2,s7,12ed4 <stbi__create_png_image_raw+0x14c>
   13038:	007b8b93          	addi	s7,s7,7
   1303c:	003bdb93          	srli	s7,s7,0x3
   13040:	000b8893          	mv	a7,s7
   13044:	ea048ee3          	beqz	s1,12f00 <stbi__create_png_image_raw+0x178>
   13048:	0296c6b3          	div	a3,a3,s1
   1304c:	e976c4e3          	blt	a3,s7,12ed4 <stbi__create_png_image_raw+0x14c>
   13050:	03748633          	mul	a2,s1,s7
   13054:	800006b7          	lui	a3,0x80000
   13058:	fff6c693          	not	a3,a3
   1305c:	417686b3          	sub	a3,a3,s7
   13060:	e6c6cae3          	blt	a3,a2,12ed4 <stbi__create_png_image_raw+0x14c>
   13064:	001b8693          	addi	a3,s7,1
   13068:	029686b3          	mul	a3,a3,s1
   1306c:	e8dcfae3          	bgeu	s9,a3,12f00 <stbi__create_png_image_raw+0x178>
   13070:	0003c737          	lui	a4,0x3c
   13074:	27470713          	addi	a4,a4,628 # 3c274 <_cmdr_inst_end+0x14c>
   13078:	00e22c23          	sw	a4,24(tp) # 18 <_ZL22stbi__g_failure_reason>
   1307c:	dc1ff06f          	j	12e3c <stbi__create_png_image_raw+0xb4>
   13080:	0e0c8a63          	beqz	s9,13174 <stbi__create_png_image_raw+0x3ec>
   13084:	02c12703          	lw	a4,44(sp)
   13088:	00600613          	li	a2,6
   1308c:	6ee67c63          	bgeu	a2,a4,13784 <stbi__create_png_image_raw+0x9fc>
   13090:	01536633          	or	a2,t1,s5
   13094:	00c6e633          	or	a2,a3,a2
   13098:	00367613          	andi	a2,a2,3
   1309c:	6e061463          	bnez	a2,13784 <stbi__create_png_image_raw+0x9fc>
   130a0:	fff78793          	addi	a5,a5,-1 # 7fffffff <_rgmii_lvl2fifo+0x70afffff>
   130a4:	40b787b3          	sub	a5,a5,a1
   130a8:	0037b793          	sltiu	a5,a5,3
   130ac:	6c079c63          	bnez	a5,13784 <stbi__create_png_image_raw+0x9fc>
   130b0:	ffccf393          	andi	t2,s9,-4
   130b4:	7f7f8fb7          	lui	t6,0x7f7f8
   130b8:	808080b7          	lui	ra,0x80808
   130bc:	00030593          	mv	a1,t1
   130c0:	00068e13          	mv	t3,a3
   130c4:	006383b3          	add	t2,t2,t1
   130c8:	000a8513          	mv	a0,s5
   130cc:	f7ff8f93          	addi	t6,t6,-129 # 7f7f7f7f <_rgmii_lvl2fifo+0x702f7f7f>
   130d0:	08008093          	addi	ra,ra,128 # 80808080 <_rgmii_lvl2fifo+0x71308080>
   130d4:	000e2603          	lw	a2,0(t3)
   130d8:	00052783          	lw	a5,0(a0)
   130dc:	00458593          	addi	a1,a1,4
   130e0:	01f67733          	and	a4,a2,t6
   130e4:	01f7f833          	and	a6,a5,t6
   130e8:	00c7c7b3          	xor	a5,a5,a2
   130ec:	01070733          	add	a4,a4,a6
   130f0:	0017f7b3          	and	a5,a5,ra
   130f4:	00f747b3          	xor	a5,a4,a5
   130f8:	fef5ae23          	sw	a5,-4(a1)
   130fc:	004e0e13          	addi	t3,t3,4
   13100:	00450513          	addi	a0,a0,4
   13104:	fcb398e3          	bne	t2,a1,130d4 <stbi__create_png_image_raw+0x34c>
   13108:	ffccf793          	andi	a5,s9,-4
   1310c:	07978463          	beq	a5,s9,13174 <stbi__create_png_image_raw+0x3ec>
   13110:	00fa8633          	add	a2,s5,a5
   13114:	00f685b3          	add	a1,a3,a5
   13118:	0005ce03          	lbu	t3,0(a1)
   1311c:	00064503          	lbu	a0,0(a2)
   13120:	00f305b3          	add	a1,t1,a5
   13124:	00178613          	addi	a2,a5,1
   13128:	01c50533          	add	a0,a0,t3
   1312c:	00a58023          	sb	a0,0(a1)
   13130:	05965263          	bge	a2,s9,13174 <stbi__create_png_image_raw+0x3ec>
   13134:	00ca85b3          	add	a1,s5,a2
   13138:	00c68533          	add	a0,a3,a2
   1313c:	00054503          	lbu	a0,0(a0)
   13140:	0005c583          	lbu	a1,0(a1)
   13144:	00c30633          	add	a2,t1,a2
   13148:	00278793          	addi	a5,a5,2
   1314c:	00a585b3          	add	a1,a1,a0
   13150:	00b60023          	sb	a1,0(a2)
   13154:	0397d063          	bge	a5,s9,13174 <stbi__create_png_image_raw+0x3ec>
   13158:	00f68633          	add	a2,a3,a5
   1315c:	00fa85b3          	add	a1,s5,a5
   13160:	00064603          	lbu	a2,0(a2)
   13164:	0005c583          	lbu	a1,0(a1)
   13168:	00f307b3          	add	a5,t1,a5
   1316c:	00b60633          	add	a2,a2,a1
   13170:	00c78023          	sb	a2,0(a5)
   13174:	019a8f33          	add	t5,s5,s9
   13178:	00030e13          	mv	t3,t1
   1317c:	015b0533          	add	a0,s6,s5
   13180:	1f6cda63          	bge	s9,s6,13374 <stbi__create_png_image_raw+0x5ec>
   13184:	0006c803          	lbu	a6,0(a3) # 80000000 <_rgmii_lvl2fifo+0x70b00000>
   13188:	01968733          	add	a4,a3,s9
   1318c:	000e4783          	lbu	a5,0(t3)
   13190:	00074603          	lbu	a2,0(a4)
   13194:	00181713          	slli	a4,a6,0x1
   13198:	01070733          	add	a4,a4,a6
   1319c:	00c788b3          	add	a7,a5,a2
   131a0:	41170733          	sub	a4,a4,a7
   131a4:	000f4583          	lbu	a1,0(t5)
   131a8:	00078893          	mv	a7,a5
   131ac:	00f65463          	bge	a2,a5,131b4 <stbi__create_png_image_raw+0x42c>
   131b0:	00060893          	mv	a7,a2
   131b4:	00c7d463          	bge	a5,a2,131bc <stbi__create_png_image_raw+0x434>
   131b8:	00060793          	mv	a5,a2
   131bc:	00f74463          	blt	a4,a5,131c4 <stbi__create_png_image_raw+0x43c>
   131c0:	00088813          	mv	a6,a7
   131c4:	3ee8c263          	blt	a7,a4,135a8 <stbi__create_png_image_raw+0x820>
   131c8:	019e0733          	add	a4,t3,s9
   131cc:	00f585b3          	add	a1,a1,a5
   131d0:	00b70023          	sb	a1,0(a4)
   131d4:	001f0f13          	addi	t5,t5,1
   131d8:	001e0e13          	addi	t3,t3,1
   131dc:	00168693          	addi	a3,a3,1
   131e0:	faaf12e3          	bne	t5,a0,13184 <stbi__create_png_image_raw+0x3fc>
   131e4:	1900006f          	j	13374 <stbi__create_png_image_raw+0x5ec>
   131e8:	020c8c63          	beqz	s9,13220 <stbi__create_png_image_raw+0x498>
   131ec:	00068e13          	mv	t3,a3
   131f0:	00030513          	mv	a0,t1
   131f4:	000a8593          	mv	a1,s5
   131f8:	019a8633          	add	a2,s5,s9
   131fc:	000e4783          	lbu	a5,0(t3)
   13200:	0005c703          	lbu	a4,0(a1)
   13204:	00158593          	addi	a1,a1,1
   13208:	0017d793          	srli	a5,a5,0x1
   1320c:	00e787b3          	add	a5,a5,a4
   13210:	00f50023          	sb	a5,0(a0)
   13214:	001e0e13          	addi	t3,t3,1
   13218:	00150513          	addi	a0,a0,1
   1321c:	feb610e3          	bne	a2,a1,131fc <stbi__create_png_image_raw+0x474>
   13220:	156cda63          	bge	s9,s6,13374 <stbi__create_png_image_raw+0x5ec>
   13224:	019a85b3          	add	a1,s5,s9
   13228:	019686b3          	add	a3,a3,s9
   1322c:	00030613          	mv	a2,t1
   13230:	015b0533          	add	a0,s6,s5
   13234:	0006c783          	lbu	a5,0(a3)
   13238:	00064883          	lbu	a7,0(a2)
   1323c:	0005c803          	lbu	a6,0(a1)
   13240:	01960733          	add	a4,a2,s9
   13244:	011787b3          	add	a5,a5,a7
   13248:	4017d793          	srai	a5,a5,0x1
   1324c:	010787b3          	add	a5,a5,a6
   13250:	00f70023          	sb	a5,0(a4)
   13254:	00158593          	addi	a1,a1,1
   13258:	00168693          	addi	a3,a3,1
   1325c:	00160613          	addi	a2,a2,1
   13260:	fca59ae3          	bne	a1,a0,13234 <stbi__create_png_image_raw+0x4ac>
   13264:	1100006f          	j	13374 <stbi__create_png_image_raw+0x5ec>
   13268:	100b0663          	beqz	s6,13374 <stbi__create_png_image_raw+0x5ec>
   1326c:	03412703          	lw	a4,52(sp)
   13270:	00600613          	li	a2,6
   13274:	4ee67063          	bgeu	a2,a4,13754 <stbi__create_png_image_raw+0x9cc>
   13278:	01536633          	or	a2,t1,s5
   1327c:	00c6e633          	or	a2,a3,a2
   13280:	00367613          	andi	a2,a2,3
   13284:	4c061863          	bnez	a2,13754 <stbi__create_png_image_raw+0x9cc>
   13288:	fff78793          	addi	a5,a5,-1
   1328c:	40b787b3          	sub	a5,a5,a1
   13290:	0037b793          	sltiu	a5,a5,3
   13294:	4c079063          	bnez	a5,13754 <stbi__create_png_image_raw+0x9cc>
   13298:	ffcb7393          	andi	t2,s6,-4
   1329c:	7f7f8fb7          	lui	t6,0x7f7f8
   132a0:	808080b7          	lui	ra,0x80808
   132a4:	00030593          	mv	a1,t1
   132a8:	00068e13          	mv	t3,a3
   132ac:	006383b3          	add	t2,t2,t1
   132b0:	000a8513          	mv	a0,s5
   132b4:	f7ff8f93          	addi	t6,t6,-129 # 7f7f7f7f <_rgmii_lvl2fifo+0x702f7f7f>
   132b8:	08008093          	addi	ra,ra,128 # 80808080 <_rgmii_lvl2fifo+0x71308080>
   132bc:	000e2603          	lw	a2,0(t3)
   132c0:	00052783          	lw	a5,0(a0)
   132c4:	00458593          	addi	a1,a1,4
   132c8:	01f67733          	and	a4,a2,t6
   132cc:	01f7f833          	and	a6,a5,t6
   132d0:	00c7c7b3          	xor	a5,a5,a2
   132d4:	01070733          	add	a4,a4,a6
   132d8:	0017f7b3          	and	a5,a5,ra
   132dc:	00f747b3          	xor	a5,a4,a5
   132e0:	fef5ae23          	sw	a5,-4(a1)
   132e4:	004e0e13          	addi	t3,t3,4
   132e8:	00450513          	addi	a0,a0,4
   132ec:	fcb398e3          	bne	t2,a1,132bc <stbi__create_png_image_raw+0x534>
   132f0:	ffcb7793          	andi	a5,s6,-4
   132f4:	08fb0063          	beq	s6,a5,13374 <stbi__create_png_image_raw+0x5ec>
   132f8:	00f685b3          	add	a1,a3,a5
   132fc:	00fa8633          	add	a2,s5,a5
   13300:	0005ce03          	lbu	t3,0(a1)
   13304:	00064503          	lbu	a0,0(a2)
   13308:	00f305b3          	add	a1,t1,a5
   1330c:	00178613          	addi	a2,a5,1
   13310:	00ae0533          	add	a0,t3,a0
   13314:	00a58023          	sb	a0,0(a1)
   13318:	05665e63          	bge	a2,s6,13374 <stbi__create_png_image_raw+0x5ec>
   1331c:	00ca85b3          	add	a1,s5,a2
   13320:	00c68533          	add	a0,a3,a2
   13324:	00054503          	lbu	a0,0(a0)
   13328:	0005c583          	lbu	a1,0(a1)
   1332c:	00c30633          	add	a2,t1,a2
   13330:	00278793          	addi	a5,a5,2
   13334:	00a585b3          	add	a1,a1,a0
   13338:	00b60023          	sb	a1,0(a2)
   1333c:	0367dc63          	bge	a5,s6,13374 <stbi__create_png_image_raw+0x5ec>
   13340:	00f686b3          	add	a3,a3,a5
   13344:	00fa8633          	add	a2,s5,a5
   13348:	0006c683          	lbu	a3,0(a3)
   1334c:	00064603          	lbu	a2,0(a2)
   13350:	00f307b3          	add	a5,t1,a5
   13354:	00c686b3          	add	a3,a3,a2
   13358:	00d78023          	sb	a3,0(a5)
   1335c:	0180006f          	j	13374 <stbi__create_png_image_raw+0x5ec>
   13360:	00030513          	mv	a0,t1
   13364:	000b0613          	mv	a2,s6
   13368:	000a8593          	mv	a1,s5
   1336c:	559130ef          	jal	ra,270c4 <memcpy>
   13370:	00050313          	mv	t1,a0
   13374:	00700793          	li	a5,7
   13378:	2497c863          	blt	a5,s1,135c8 <stbi__create_png_image_raw+0x840>
   1337c:	02012783          	lw	a5,32(sp)
   13380:	00100613          	li	a2,1
   13384:	00079663          	bnez	a5,13390 <stbi__create_png_image_raw+0x608>
   13388:	02812783          	lw	a5,40(sp)
   1338c:	0007c603          	lbu	a2,0(a5)
   13390:	00400793          	li	a5,4
   13394:	36f48063          	beq	s1,a5,136f4 <stbi__create_png_image_raw+0x96c>
   13398:	00200793          	li	a5,2
   1339c:	2ef48863          	beq	s1,a5,1368c <stbi__create_png_image_raw+0x904>
   133a0:	00000793          	li	a5,0
   133a4:	00000693          	li	a3,0
   133a8:	02098a63          	beqz	s3,133dc <stbi__create_png_image_raw+0x654>
   133ac:	0076f713          	andi	a4,a3,7
   133b0:	1c071a63          	bnez	a4,13584 <stbi__create_png_image_raw+0x7fc>
   133b4:	00034783          	lbu	a5,0(t1)
   133b8:	00d405b3          	add	a1,s0,a3
   133bc:	00168693          	addi	a3,a3,1
   133c0:	0077d713          	srli	a4,a5,0x7
   133c4:	02e60733          	mul	a4,a2,a4
   133c8:	00179793          	slli	a5,a5,0x1
   133cc:	00130313          	addi	t1,t1,1
   133d0:	0ff7f793          	zext.b	a5,a5
   133d4:	00e58023          	sb	a4,0(a1)
   133d8:	fd369ae3          	bne	a3,s3,133ac <stbi__create_png_image_raw+0x624>
   133dc:	01c12783          	lw	a5,28(sp)
   133e0:	01a78c63          	beq	a5,s10,133f8 <stbi__create_png_image_raw+0x670>
   133e4:	000d0693          	mv	a3,s10
   133e8:	00090613          	mv	a2,s2
   133ec:	00040593          	mv	a1,s0
   133f0:	00040513          	mv	a0,s0
   133f4:	8f4fe0ef          	jal	ra,114e8 <stbi__create_png_alpha_expand8>
   133f8:	00812783          	lw	a5,8(sp)
   133fc:	001c0c13          	addi	s8,s8,1
   13400:	00fb8bb3          	add	s7,s7,a5
   13404:	00c12783          	lw	a5,12(sp)
   13408:	00fa8ab3          	add	s5,s5,a5
   1340c:	01412783          	lw	a5,20(sp)
   13410:	3d878a63          	beq	a5,s8,137e4 <stbi__create_png_image_raw+0xa5c>
   13414:	01812783          	lw	a5,24(sp)
   13418:	00c7a403          	lw	s0,12(a5)
   1341c:	bbdff06f          	j	12fd8 <stbi__create_png_image_raw+0x250>
   13420:	00030513          	mv	a0,t1
   13424:	000c8613          	mv	a2,s9
   13428:	000a8593          	mv	a1,s5
   1342c:	02f12823          	sw	a5,48(sp)
   13430:	495130ef          	jal	ra,270c4 <memcpy>
   13434:	00050313          	mv	t1,a0
   13438:	f36cdee3          	bge	s9,s6,13374 <stbi__create_png_image_raw+0x5ec>
   1343c:	03812703          	lw	a4,56(sp)
   13440:	00600693          	li	a3,6
   13444:	03012783          	lw	a5,48(sp)
   13448:	019a8633          	add	a2,s5,s9
   1344c:	36e6f663          	bgeu	a3,a4,137b8 <stbi__create_png_image_raw+0xa30>
   13450:	019a85b3          	add	a1,s5,s9
   13454:	019787b3          	add	a5,a5,s9
   13458:	00fa07b3          	add	a5,s4,a5
   1345c:	00b566b3          	or	a3,a0,a1
   13460:	00d7e6b3          	or	a3,a5,a3
   13464:	0036f693          	andi	a3,a3,3
   13468:	00058613          	mv	a2,a1
   1346c:	34069663          	bnez	a3,137b8 <stbi__create_png_image_raw+0xa30>
   13470:	02c12703          	lw	a4,44(sp)
   13474:	00373693          	sltiu	a3,a4,3
   13478:	34069063          	bnez	a3,137b8 <stbi__create_png_image_raw+0xa30>
   1347c:	03c12703          	lw	a4,60(sp)
   13480:	7f7f8f37          	lui	t5,0x7f7f8
   13484:	808083b7          	lui	t2,0x80808
   13488:	ffc77293          	andi	t0,a4,-4
   1348c:	005782b3          	add	t0,a5,t0
   13490:	f7ff0f13          	addi	t5,t5,-129 # 7f7f7f7f <_rgmii_lvl2fifo+0x702f7f7f>
   13494:	08038393          	addi	t2,t2,128 # 80808080 <_rgmii_lvl2fifo+0x71308080>
   13498:	00052703          	lw	a4,0(a0)
   1349c:	0005a603          	lw	a2,0(a1)
   134a0:	00478793          	addi	a5,a5,4
   134a4:	01e776b3          	and	a3,a4,t5
   134a8:	01e67833          	and	a6,a2,t5
   134ac:	00c74733          	xor	a4,a4,a2
   134b0:	010686b3          	add	a3,a3,a6
   134b4:	00777733          	and	a4,a4,t2
   134b8:	00e6c733          	xor	a4,a3,a4
   134bc:	fee7ae23          	sw	a4,-4(a5)
   134c0:	00450513          	addi	a0,a0,4
   134c4:	00458593          	addi	a1,a1,4
   134c8:	fc5798e3          	bne	a5,t0,13498 <stbi__create_png_image_raw+0x710>
   134cc:	03c12783          	lw	a5,60(sp)
   134d0:	ffc7f693          	andi	a3,a5,-4
   134d4:	0037f613          	andi	a2,a5,3
   134d8:	019687b3          	add	a5,a3,s9
   134dc:	e8060ce3          	beqz	a2,13374 <stbi__create_png_image_raw+0x5ec>
   134e0:	00fa8633          	add	a2,s5,a5
   134e4:	00d306b3          	add	a3,t1,a3
   134e8:	0006c503          	lbu	a0,0(a3)
   134ec:	00064583          	lbu	a1,0(a2)
   134f0:	00f30633          	add	a2,t1,a5
   134f4:	00178693          	addi	a3,a5,1
   134f8:	00a585b3          	add	a1,a1,a0
   134fc:	00b60023          	sb	a1,0(a2)
   13500:	e766dae3          	bge	a3,s6,13374 <stbi__create_png_image_raw+0x5ec>
   13504:	41968633          	sub	a2,a3,s9
   13508:	00da85b3          	add	a1,s5,a3
   1350c:	00c30633          	add	a2,t1,a2
   13510:	00064603          	lbu	a2,0(a2)
   13514:	0005c583          	lbu	a1,0(a1)
   13518:	00d306b3          	add	a3,t1,a3
   1351c:	00278793          	addi	a5,a5,2
   13520:	00b60633          	add	a2,a2,a1
   13524:	00c68023          	sb	a2,0(a3)
   13528:	e567d6e3          	bge	a5,s6,13374 <stbi__create_png_image_raw+0x5ec>
   1352c:	419786b3          	sub	a3,a5,s9
   13530:	00d306b3          	add	a3,t1,a3
   13534:	e11ff06f          	j	13344 <stbi__create_png_image_raw+0x5bc>
   13538:	00030513          	mv	a0,t1
   1353c:	000c8613          	mv	a2,s9
   13540:	000a8593          	mv	a1,s5
   13544:	381130ef          	jal	ra,270c4 <memcpy>
   13548:	00050313          	mv	t1,a0
   1354c:	e36cd4e3          	bge	s9,s6,13374 <stbi__create_png_image_raw+0x5ec>
   13550:	00050693          	mv	a3,a0
   13554:	019a8633          	add	a2,s5,s9
   13558:	015b0533          	add	a0,s6,s5
   1355c:	0006c783          	lbu	a5,0(a3)
   13560:	00064583          	lbu	a1,0(a2)
   13564:	01968733          	add	a4,a3,s9
   13568:	0017d793          	srli	a5,a5,0x1
   1356c:	00b787b3          	add	a5,a5,a1
   13570:	00f70023          	sb	a5,0(a4)
   13574:	00160613          	addi	a2,a2,1
   13578:	00168693          	addi	a3,a3,1
   1357c:	fec510e3          	bne	a0,a2,1355c <stbi__create_png_image_raw+0x7d4>
   13580:	df5ff06f          	j	13374 <stbi__create_png_image_raw+0x5ec>
   13584:	0077d713          	srli	a4,a5,0x7
   13588:	02e60733          	mul	a4,a2,a4
   1358c:	00d405b3          	add	a1,s0,a3
   13590:	00179793          	slli	a5,a5,0x1
   13594:	00168693          	addi	a3,a3,1
   13598:	0ff7f793          	zext.b	a5,a5
   1359c:	00e58023          	sb	a4,0(a1)
   135a0:	e0d996e3          	bne	s3,a3,133ac <stbi__create_png_image_raw+0x624>
   135a4:	e39ff06f          	j	133dc <stbi__create_png_image_raw+0x654>
   135a8:	019e07b3          	add	a5,t3,s9
   135ac:	010585b3          	add	a1,a1,a6
   135b0:	00b78023          	sb	a1,0(a5)
   135b4:	001f0f13          	addi	t5,t5,1
   135b8:	001e0e13          	addi	t3,t3,1
   135bc:	00168693          	addi	a3,a3,1
   135c0:	bde512e3          	bne	a0,t5,13184 <stbi__create_png_image_raw+0x3fc>
   135c4:	db1ff06f          	j	13374 <stbi__create_png_image_raw+0x5ec>
   135c8:	00800793          	li	a5,8
   135cc:	0af48063          	beq	s1,a5,1366c <stbi__create_png_image_raw+0x8e4>
   135d0:	01000793          	li	a5,16
   135d4:	e2f492e3          	bne	s1,a5,133f8 <stbi__create_png_image_raw+0x670>
   135d8:	01c12783          	lw	a5,28(sp)
   135dc:	29a78663          	beq	a5,s10,13868 <stbi__create_png_image_raw+0xae0>
   135e0:	00100793          	li	a5,1
   135e4:	24fd0063          	beq	s10,a5,13824 <stbi__create_png_image_raw+0xa9c>
   135e8:	00000513          	li	a0,0
   135ec:	fff00e13          	li	t3,-1
   135f0:	e00904e3          	beqz	s2,133f8 <stbi__create_png_image_raw+0x670>
   135f4:	00134683          	lbu	a3,1(t1)
   135f8:	00334703          	lbu	a4,3(t1)
   135fc:	00534783          	lbu	a5,5(t1)
   13600:	00034803          	lbu	a6,0(t1)
   13604:	00234583          	lbu	a1,2(t1)
   13608:	00434603          	lbu	a2,4(t1)
   1360c:	00869693          	slli	a3,a3,0x8
   13610:	00871713          	slli	a4,a4,0x8
   13614:	00879793          	slli	a5,a5,0x8
   13618:	0106e6b3          	or	a3,a3,a6
   1361c:	00b76733          	or	a4,a4,a1
   13620:	00c7e7b3          	or	a5,a5,a2
   13624:	00869813          	slli	a6,a3,0x8
   13628:	00871593          	slli	a1,a4,0x8
   1362c:	00879613          	slli	a2,a5,0x8
   13630:	0086d693          	srli	a3,a3,0x8
   13634:	00875713          	srli	a4,a4,0x8
   13638:	0087d793          	srli	a5,a5,0x8
   1363c:	00d866b3          	or	a3,a6,a3
   13640:	00e5e733          	or	a4,a1,a4
   13644:	00f667b3          	or	a5,a2,a5
   13648:	00d41023          	sh	a3,0(s0)
   1364c:	00e41123          	sh	a4,2(s0)
   13650:	00f41223          	sh	a5,4(s0)
   13654:	01c41323          	sh	t3,6(s0)
   13658:	00150513          	addi	a0,a0,1
   1365c:	00840413          	addi	s0,s0,8
   13660:	00630313          	addi	t1,t1,6
   13664:	f8a918e3          	bne	s2,a0,135f4 <stbi__create_png_image_raw+0x86c>
   13668:	d91ff06f          	j	133f8 <stbi__create_png_image_raw+0x670>
   1366c:	01c12783          	lw	a5,28(sp)
   13670:	1ba78063          	beq	a5,s10,13810 <stbi__create_png_image_raw+0xa88>
   13674:	000d0693          	mv	a3,s10
   13678:	00090613          	mv	a2,s2
   1367c:	00030593          	mv	a1,t1
   13680:	00040513          	mv	a0,s0
   13684:	e65fd0ef          	jal	ra,114e8 <stbi__create_png_alpha_expand8>
   13688:	d71ff06f          	j	133f8 <stbi__create_png_image_raw+0x670>
   1368c:	d40988e3          	beqz	s3,133dc <stbi__create_png_image_raw+0x654>
   13690:	00000793          	li	a5,0
   13694:	00000693          	li	a3,0
   13698:	0036f713          	andi	a4,a3,3
   1369c:	02071a63          	bnez	a4,136d0 <stbi__create_png_image_raw+0x948>
   136a0:	00034783          	lbu	a5,0(t1)
   136a4:	00d405b3          	add	a1,s0,a3
   136a8:	00168693          	addi	a3,a3,1
   136ac:	0067d713          	srli	a4,a5,0x6
   136b0:	02e60733          	mul	a4,a2,a4
   136b4:	00279793          	slli	a5,a5,0x2
   136b8:	00130313          	addi	t1,t1,1
   136bc:	0ff7f793          	zext.b	a5,a5
   136c0:	00e58023          	sb	a4,0(a1)
   136c4:	d1368ce3          	beq	a3,s3,133dc <stbi__create_png_image_raw+0x654>
   136c8:	0036f713          	andi	a4,a3,3
   136cc:	fc070ae3          	beqz	a4,136a0 <stbi__create_png_image_raw+0x918>
   136d0:	0067d713          	srli	a4,a5,0x6
   136d4:	02e60733          	mul	a4,a2,a4
   136d8:	00d405b3          	add	a1,s0,a3
   136dc:	00279793          	slli	a5,a5,0x2
   136e0:	00168693          	addi	a3,a3,1
   136e4:	0ff7f793          	zext.b	a5,a5
   136e8:	00e58023          	sb	a4,0(a1)
   136ec:	fad996e3          	bne	s3,a3,13698 <stbi__create_png_image_raw+0x910>
   136f0:	cedff06f          	j	133dc <stbi__create_png_image_raw+0x654>
   136f4:	00000793          	li	a5,0
   136f8:	00000693          	li	a3,0
   136fc:	ce0980e3          	beqz	s3,133dc <stbi__create_png_image_raw+0x654>
   13700:	0016f713          	andi	a4,a3,1
   13704:	02071863          	bnez	a4,13734 <stbi__create_png_image_raw+0x9ac>
   13708:	00034783          	lbu	a5,0(t1)
   1370c:	00d405b3          	add	a1,s0,a3
   13710:	00168693          	addi	a3,a3,1
   13714:	0047d713          	srli	a4,a5,0x4
   13718:	02e60733          	mul	a4,a2,a4
   1371c:	00479793          	slli	a5,a5,0x4
   13720:	00130313          	addi	t1,t1,1
   13724:	0ff7f793          	zext.b	a5,a5
   13728:	00e58023          	sb	a4,0(a1)
   1372c:	fcd99ae3          	bne	s3,a3,13700 <stbi__create_png_image_raw+0x978>
   13730:	cadff06f          	j	133dc <stbi__create_png_image_raw+0x654>
   13734:	0047d793          	srli	a5,a5,0x4
   13738:	02f607b3          	mul	a5,a2,a5
   1373c:	00d40733          	add	a4,s0,a3
   13740:	00168693          	addi	a3,a3,1
   13744:	00f70023          	sb	a5,0(a4)
   13748:	c8d98ae3          	beq	s3,a3,133dc <stbi__create_png_image_raw+0x654>
   1374c:	00000793          	li	a5,0
   13750:	fb1ff06f          	j	13700 <stbi__create_png_image_raw+0x978>
   13754:	00030593          	mv	a1,t1
   13758:	000a8793          	mv	a5,s5
   1375c:	015b0533          	add	a0,s6,s5
   13760:	0006c703          	lbu	a4,0(a3)
   13764:	0007c603          	lbu	a2,0(a5)
   13768:	00178793          	addi	a5,a5,1
   1376c:	00168693          	addi	a3,a3,1
   13770:	00c70733          	add	a4,a4,a2
   13774:	00e58023          	sb	a4,0(a1)
   13778:	00158593          	addi	a1,a1,1
   1377c:	fef512e3          	bne	a0,a5,13760 <stbi__create_png_image_raw+0x9d8>
   13780:	bf5ff06f          	j	13374 <stbi__create_png_image_raw+0x5ec>
   13784:	00068e13          	mv	t3,a3
   13788:	00030513          	mv	a0,t1
   1378c:	000a8793          	mv	a5,s5
   13790:	019a8633          	add	a2,s5,s9
   13794:	000e4703          	lbu	a4,0(t3)
   13798:	0007c583          	lbu	a1,0(a5)
   1379c:	00178793          	addi	a5,a5,1
   137a0:	001e0e13          	addi	t3,t3,1
   137a4:	00b70733          	add	a4,a4,a1
   137a8:	00e50023          	sb	a4,0(a0)
   137ac:	00150513          	addi	a0,a0,1
   137b0:	fef612e3          	bne	a2,a5,13794 <stbi__create_png_image_raw+0xa0c>
   137b4:	9c1ff06f          	j	13174 <stbi__create_png_image_raw+0x3ec>
   137b8:	00030793          	mv	a5,t1
   137bc:	015b0533          	add	a0,s6,s5
   137c0:	0007c703          	lbu	a4,0(a5)
   137c4:	00064583          	lbu	a1,0(a2)
   137c8:	019786b3          	add	a3,a5,s9
   137cc:	00160613          	addi	a2,a2,1
   137d0:	00b70733          	add	a4,a4,a1
   137d4:	00e68023          	sb	a4,0(a3)
   137d8:	00178793          	addi	a5,a5,1
   137dc:	fec512e3          	bne	a0,a2,137c0 <stbi__create_png_image_raw+0xa38>
   137e0:	b95ff06f          	j	13374 <stbi__create_png_image_raw+0x5ec>
   137e4:	000a0e93          	mv	t4,s4
   137e8:	000e8513          	mv	a0,t4
   137ec:	144130ef          	jal	ra,26930 <free>
   137f0:	00100513          	li	a0,1
   137f4:	e4cff06f          	j	12e40 <stbi__create_png_image_raw+0xb8>
   137f8:	0003c737          	lui	a4,0x3c
   137fc:	28870713          	addi	a4,a4,648 # 3c288 <_cmdr_inst_end+0x160>
   13800:	000a0513          	mv	a0,s4
   13804:	00e22c23          	sw	a4,24(tp) # 18 <_ZL22stbi__g_failure_reason>
   13808:	128130ef          	jal	ra,26930 <free>
   1380c:	e30ff06f          	j	12e3c <stbi__create_png_image_raw+0xb4>
   13810:	00098613          	mv	a2,s3
   13814:	00030593          	mv	a1,t1
   13818:	00040513          	mv	a0,s0
   1381c:	0a9130ef          	jal	ra,270c4 <memcpy>
   13820:	bd9ff06f          	j	133f8 <stbi__create_png_image_raw+0x670>
   13824:	bc090ae3          	beqz	s2,133f8 <stbi__create_png_image_raw+0x670>
   13828:	00000693          	li	a3,0
   1382c:	fff00613          	li	a2,-1
   13830:	00134783          	lbu	a5,1(t1)
   13834:	00034703          	lbu	a4,0(t1)
   13838:	00c41123          	sh	a2,2(s0)
   1383c:	00879793          	slli	a5,a5,0x8
   13840:	00e7e7b3          	or	a5,a5,a4
   13844:	00879713          	slli	a4,a5,0x8
   13848:	0087d793          	srli	a5,a5,0x8
   1384c:	00f767b3          	or	a5,a4,a5
   13850:	00f41023          	sh	a5,0(s0)
   13854:	00168693          	addi	a3,a3,1
   13858:	00440413          	addi	s0,s0,4
   1385c:	00230313          	addi	t1,t1,2
   13860:	fcd918e3          	bne	s2,a3,13830 <stbi__create_png_image_raw+0xaa8>
   13864:	b95ff06f          	j	133f8 <stbi__create_png_image_raw+0x670>
   13868:	b80988e3          	beqz	s3,133f8 <stbi__create_png_image_raw+0x670>
   1386c:	00000693          	li	a3,0
   13870:	00134783          	lbu	a5,1(t1)
   13874:	00034703          	lbu	a4,0(t1)
   13878:	00168693          	addi	a3,a3,1
   1387c:	00879793          	slli	a5,a5,0x8
   13880:	00e7e7b3          	or	a5,a5,a4
   13884:	00879713          	slli	a4,a5,0x8
   13888:	0087d793          	srli	a5,a5,0x8
   1388c:	00f767b3          	or	a5,a4,a5
   13890:	00f41023          	sh	a5,0(s0)
   13894:	00230313          	addi	t1,t1,2
   13898:	00240413          	addi	s0,s0,2
   1389c:	fcd99ae3          	bne	s3,a3,13870 <stbi__create_png_image_raw+0xae8>
   138a0:	b59ff06f          	j	133f8 <stbi__create_png_image_raw+0x670>

000138a4 <stbi__hdr_test>:
   138a4:	fe010113          	addi	sp,sp,-32
   138a8:	01212823          	sw	s2,16(sp)
   138ac:	0003c937          	lui	s2,0x3c
   138b0:	00812c23          	sw	s0,24(sp)
   138b4:	00912a23          	sw	s1,20(sp)
   138b8:	01312623          	sw	s3,12(sp)
   138bc:	0ac52783          	lw	a5,172(a0)
   138c0:	0b052683          	lw	a3,176(a0)
   138c4:	00112e23          	sw	ra,28(sp)
   138c8:	00050413          	mv	s0,a0
   138cc:	2b190913          	addi	s2,s2,689 # 3c2b1 <_cmdr_inst_end+0x189>
   138d0:	02300493          	li	s1,35
   138d4:	02850993          	addi	s3,a0,40
   138d8:	0200006f          	j	138f8 <stbi__hdr_test+0x54>
   138dc:	0ae42623          	sw	a4,172(s0)
   138e0:	0007c603          	lbu	a2,0(a5)
   138e4:	00070793          	mv	a5,a4
   138e8:	00190913          	addi	s2,s2,1
   138ec:	00961e63          	bne	a2,s1,13908 <stbi__hdr_test+0x64>
   138f0:	fff94483          	lbu	s1,-1(s2)
   138f4:	0e048463          	beqz	s1,139dc <stbi__hdr_test+0x138>
   138f8:	00178713          	addi	a4,a5,1
   138fc:	fed7e0e3          	bltu	a5,a3,138dc <stbi__hdr_test+0x38>
   13900:	02042783          	lw	a5,32(s0)
   13904:	08079263          	bnez	a5,13988 <stbi__hdr_test+0xe4>
   13908:	0b442703          	lw	a4,180(s0)
   1390c:	0b842683          	lw	a3,184(s0)
   13910:	0003c4b7          	lui	s1,0x3c
   13914:	00070793          	mv	a5,a4
   13918:	0ae42623          	sw	a4,172(s0)
   1391c:	0ad42823          	sw	a3,176(s0)
   13920:	2bd48493          	addi	s1,s1,701 # 3c2bd <_cmdr_inst_end+0x195>
   13924:	02300913          	li	s2,35
   13928:	0240006f          	j	1394c <stbi__hdr_test+0xa8>
   1392c:	0ac42623          	sw	a2,172(s0)
   13930:	0007c783          	lbu	a5,0(a5)
   13934:	00148493          	addi	s1,s1,1
   13938:	02f91263          	bne	s2,a5,1395c <stbi__hdr_test+0xb8>
   1393c:	fff4c903          	lbu	s2,-1(s1)
   13940:	12090263          	beqz	s2,13a64 <stbi__hdr_test+0x1c0>
   13944:	0ac42783          	lw	a5,172(s0)
   13948:	0b042683          	lw	a3,176(s0)
   1394c:	00178613          	addi	a2,a5,1
   13950:	fcd7eee3          	bltu	a5,a3,1392c <stbi__hdr_test+0x88>
   13954:	02042783          	lw	a5,32(s0)
   13958:	0a079a63          	bnez	a5,13a0c <stbi__hdr_test+0x168>
   1395c:	00000513          	li	a0,0
   13960:	0b842783          	lw	a5,184(s0)
   13964:	01c12083          	lw	ra,28(sp)
   13968:	0ae42623          	sw	a4,172(s0)
   1396c:	0af42823          	sw	a5,176(s0)
   13970:	01812403          	lw	s0,24(sp)
   13974:	01412483          	lw	s1,20(sp)
   13978:	01012903          	lw	s2,16(sp)
   1397c:	00c12983          	lw	s3,12(sp)
   13980:	02010113          	addi	sp,sp,32
   13984:	00008067          	ret
   13988:	01042783          	lw	a5,16(s0)
   1398c:	02442603          	lw	a2,36(s0)
   13990:	01c42503          	lw	a0,28(s0)
   13994:	00098593          	mv	a1,s3
   13998:	000780e7          	jalr	a5
   1399c:	0ac42683          	lw	a3,172(s0)
   139a0:	0b442703          	lw	a4,180(s0)
   139a4:	0a842783          	lw	a5,168(s0)
   139a8:	40e686b3          	sub	a3,a3,a4
   139ac:	00d787b3          	add	a5,a5,a3
   139b0:	0af42423          	sw	a5,168(s0)
   139b4:	00a986b3          	add	a3,s3,a0
   139b8:	02940793          	addi	a5,s0,41
   139bc:	00051863          	bnez	a0,139cc <stbi__hdr_test+0x128>
   139c0:	02042023          	sw	zero,32(s0)
   139c4:	02040423          	sb	zero,40(s0)
   139c8:	f45ff06f          	j	1390c <stbi__hdr_test+0x68>
   139cc:	02844603          	lbu	a2,40(s0)
   139d0:	0ad42823          	sw	a3,176(s0)
   139d4:	0af42623          	sw	a5,172(s0)
   139d8:	f11ff06f          	j	138e8 <stbi__hdr_test+0x44>
   139dc:	0b442703          	lw	a4,180(s0)
   139e0:	0b842783          	lw	a5,184(s0)
   139e4:	01c12083          	lw	ra,28(sp)
   139e8:	0ae42623          	sw	a4,172(s0)
   139ec:	0af42823          	sw	a5,176(s0)
   139f0:	01812403          	lw	s0,24(sp)
   139f4:	01412483          	lw	s1,20(sp)
   139f8:	01012903          	lw	s2,16(sp)
   139fc:	00c12983          	lw	s3,12(sp)
   13a00:	00100513          	li	a0,1
   13a04:	02010113          	addi	sp,sp,32
   13a08:	00008067          	ret
   13a0c:	01042783          	lw	a5,16(s0)
   13a10:	02442603          	lw	a2,36(s0)
   13a14:	01c42503          	lw	a0,28(s0)
   13a18:	02840993          	addi	s3,s0,40
   13a1c:	00098593          	mv	a1,s3
   13a20:	000780e7          	jalr	a5
   13a24:	0ac42683          	lw	a3,172(s0)
   13a28:	0b442703          	lw	a4,180(s0)
   13a2c:	0a842783          	lw	a5,168(s0)
   13a30:	00a989b3          	add	s3,s3,a0
   13a34:	40e686b3          	sub	a3,a3,a4
   13a38:	00d787b3          	add	a5,a5,a3
   13a3c:	0af42423          	sw	a5,168(s0)
   13a40:	02940693          	addi	a3,s0,41
   13a44:	00051863          	bnez	a0,13a54 <stbi__hdr_test+0x1b0>
   13a48:	02042023          	sw	zero,32(s0)
   13a4c:	02040423          	sb	zero,40(s0)
   13a50:	f0dff06f          	j	1395c <stbi__hdr_test+0xb8>
   13a54:	02844783          	lbu	a5,40(s0)
   13a58:	0b342823          	sw	s3,176(s0)
   13a5c:	0ad42623          	sw	a3,172(s0)
   13a60:	ed5ff06f          	j	13934 <stbi__hdr_test+0x90>
   13a64:	00100513          	li	a0,1
   13a68:	ef9ff06f          	j	13960 <stbi__hdr_test+0xbc>

00013a6c <stbi__get8>:
   13a6c:	0ac52783          	lw	a5,172(a0)
   13a70:	0b052703          	lw	a4,176(a0)
   13a74:	ff010113          	addi	sp,sp,-16
   13a78:	00812423          	sw	s0,8(sp)
   13a7c:	00112623          	sw	ra,12(sp)
   13a80:	00912223          	sw	s1,4(sp)
   13a84:	01212023          	sw	s2,0(sp)
   13a88:	00050413          	mv	s0,a0
   13a8c:	02e7f663          	bgeu	a5,a4,13ab8 <stbi__get8+0x4c>
   13a90:	00178713          	addi	a4,a5,1
   13a94:	0ae52623          	sw	a4,172(a0)
   13a98:	0007c483          	lbu	s1,0(a5)
   13a9c:	00c12083          	lw	ra,12(sp)
   13aa0:	00812403          	lw	s0,8(sp)
   13aa4:	00012903          	lw	s2,0(sp)
   13aa8:	00048513          	mv	a0,s1
   13aac:	00412483          	lw	s1,4(sp)
   13ab0:	01010113          	addi	sp,sp,16
   13ab4:	00008067          	ret
   13ab8:	02052783          	lw	a5,32(a0)
   13abc:	00000493          	li	s1,0
   13ac0:	fc078ee3          	beqz	a5,13a9c <stbi__get8+0x30>
   13ac4:	01052783          	lw	a5,16(a0)
   13ac8:	02452603          	lw	a2,36(a0)
   13acc:	01c52503          	lw	a0,28(a0)
   13ad0:	02840913          	addi	s2,s0,40
   13ad4:	00090593          	mv	a1,s2
   13ad8:	000780e7          	jalr	a5
   13adc:	0ac42703          	lw	a4,172(s0)
   13ae0:	0b442683          	lw	a3,180(s0)
   13ae4:	0a842783          	lw	a5,168(s0)
   13ae8:	40d70733          	sub	a4,a4,a3
   13aec:	00e787b3          	add	a5,a5,a4
   13af0:	0af42423          	sw	a5,168(s0)
   13af4:	02940793          	addi	a5,s0,41
   13af8:	02051a63          	bnez	a0,13b2c <stbi__get8+0xc0>
   13afc:	02042023          	sw	zero,32(s0)
   13b00:	02040423          	sb	zero,40(s0)
   13b04:	00078913          	mv	s2,a5
   13b08:	0b242823          	sw	s2,176(s0)
   13b0c:	00c12083          	lw	ra,12(sp)
   13b10:	0af42623          	sw	a5,172(s0)
   13b14:	00812403          	lw	s0,8(sp)
   13b18:	00012903          	lw	s2,0(sp)
   13b1c:	00048513          	mv	a0,s1
   13b20:	00412483          	lw	s1,4(sp)
   13b24:	01010113          	addi	sp,sp,16
   13b28:	00008067          	ret
   13b2c:	02844483          	lbu	s1,40(s0)
   13b30:	00a90933          	add	s2,s2,a0
   13b34:	fd5ff06f          	j	13b08 <stbi__get8+0x9c>

00013b38 <stbi__readval>:
   13b38:	fd010113          	addi	sp,sp,-48
   13b3c:	02812423          	sw	s0,40(sp)
   13b40:	02912223          	sw	s1,36(sp)
   13b44:	03212023          	sw	s2,32(sp)
   13b48:	01312e23          	sw	s3,28(sp)
   13b4c:	01412c23          	sw	s4,24(sp)
   13b50:	01612823          	sw	s6,16(sp)
   13b54:	02112623          	sw	ra,44(sp)
   13b58:	01512a23          	sw	s5,20(sp)
   13b5c:	01712623          	sw	s7,12(sp)
   13b60:	00060b13          	mv	s6,a2
   13b64:	00050413          	mv	s0,a0
   13b68:	00058993          	mv	s3,a1
   13b6c:	00060493          	mv	s1,a2
   13b70:	00460a13          	addi	s4,a2,4
   13b74:	08000913          	li	s2,128
   13b78:	0129f7b3          	and	a5,s3,s2
   13b7c:	04078063          	beqz	a5,13bbc <stbi__readval+0x84>
   13b80:	01042783          	lw	a5,16(s0)
   13b84:	00078e63          	beqz	a5,13ba0 <stbi__readval+0x68>
   13b88:	01842783          	lw	a5,24(s0)
   13b8c:	01c42503          	lw	a0,28(s0)
   13b90:	000780e7          	jalr	a5
   13b94:	06050263          	beqz	a0,13bf8 <stbi__readval+0xc0>
   13b98:	02042783          	lw	a5,32(s0)
   13b9c:	0c078263          	beqz	a5,13c60 <stbi__readval+0x128>
   13ba0:	0ac42783          	lw	a5,172(s0)
   13ba4:	0b042703          	lw	a4,176(s0)
   13ba8:	0ae7fc63          	bgeu	a5,a4,13c60 <stbi__readval+0x128>
   13bac:	00178713          	addi	a4,a5,1
   13bb0:	0ae42623          	sw	a4,172(s0)
   13bb4:	0007ca83          	lbu	s5,0(a5)
   13bb8:	01548023          	sb	s5,0(s1)
   13bbc:	00148493          	addi	s1,s1,1
   13bc0:	40195913          	srai	s2,s2,0x1
   13bc4:	fb449ae3          	bne	s1,s4,13b78 <stbi__readval+0x40>
   13bc8:	02c12083          	lw	ra,44(sp)
   13bcc:	02812403          	lw	s0,40(sp)
   13bd0:	02412483          	lw	s1,36(sp)
   13bd4:	02012903          	lw	s2,32(sp)
   13bd8:	01c12983          	lw	s3,28(sp)
   13bdc:	01812a03          	lw	s4,24(sp)
   13be0:	01412a83          	lw	s5,20(sp)
   13be4:	00c12b83          	lw	s7,12(sp)
   13be8:	000b0513          	mv	a0,s6
   13bec:	01012b03          	lw	s6,16(sp)
   13bf0:	03010113          	addi	sp,sp,48
   13bf4:	00008067          	ret
   13bf8:	0ac42783          	lw	a5,172(s0)
   13bfc:	0b042703          	lw	a4,176(s0)
   13c00:	fae7e6e3          	bltu	a5,a4,13bac <stbi__readval+0x74>
   13c04:	02042783          	lw	a5,32(s0)
   13c08:	00000a93          	li	s5,0
   13c0c:	fa0786e3          	beqz	a5,13bb8 <stbi__readval+0x80>
   13c10:	01042783          	lw	a5,16(s0)
   13c14:	02442603          	lw	a2,36(s0)
   13c18:	01c42503          	lw	a0,28(s0)
   13c1c:	02840b93          	addi	s7,s0,40
   13c20:	000b8593          	mv	a1,s7
   13c24:	000780e7          	jalr	a5
   13c28:	0ac42703          	lw	a4,172(s0)
   13c2c:	0b442683          	lw	a3,180(s0)
   13c30:	0a842783          	lw	a5,168(s0)
   13c34:	40d70733          	sub	a4,a4,a3
   13c38:	00e787b3          	add	a5,a5,a4
   13c3c:	0af42423          	sw	a5,168(s0)
   13c40:	02940793          	addi	a5,s0,41
   13c44:	02051863          	bnez	a0,13c74 <stbi__readval+0x13c>
   13c48:	02042023          	sw	zero,32(s0)
   13c4c:	02040423          	sb	zero,40(s0)
   13c50:	00078b93          	mv	s7,a5
   13c54:	0b742823          	sw	s7,176(s0)
   13c58:	0af42623          	sw	a5,172(s0)
   13c5c:	f5dff06f          	j	13bb8 <stbi__readval+0x80>
   13c60:	0003c737          	lui	a4,0x3c
   13c64:	2c470713          	addi	a4,a4,708 # 3c2c4 <_cmdr_inst_end+0x19c>
   13c68:	00e22c23          	sw	a4,24(tp) # 18 <_ZL22stbi__g_failure_reason>
   13c6c:	00000b13          	li	s6,0
   13c70:	f59ff06f          	j	13bc8 <stbi__readval+0x90>
   13c74:	02844a83          	lbu	s5,40(s0)
   13c78:	00ab8bb3          	add	s7,s7,a0
   13c7c:	fd9ff06f          	j	13c54 <stbi__readval+0x11c>

00013c80 <stbi__get16be>:
   13c80:	0ac52783          	lw	a5,172(a0)
   13c84:	0b052583          	lw	a1,176(a0)
   13c88:	ff010113          	addi	sp,sp,-16
   13c8c:	00812423          	sw	s0,8(sp)
   13c90:	00112623          	sw	ra,12(sp)
   13c94:	00912223          	sw	s1,4(sp)
   13c98:	01212023          	sw	s2,0(sp)
   13c9c:	00050413          	mv	s0,a0
   13ca0:	04b7f263          	bgeu	a5,a1,13ce4 <stbi__get16be+0x64>
   13ca4:	00178713          	addi	a4,a5,1
   13ca8:	0ae52623          	sw	a4,172(a0)
   13cac:	0007c483          	lbu	s1,0(a5)
   13cb0:	00849493          	slli	s1,s1,0x8
   13cb4:	08b77263          	bgeu	a4,a1,13d38 <stbi__get16be+0xb8>
   13cb8:	00170793          	addi	a5,a4,1
   13cbc:	0af42623          	sw	a5,172(s0)
   13cc0:	00074783          	lbu	a5,0(a4)
   13cc4:	00f484b3          	add	s1,s1,a5
   13cc8:	00c12083          	lw	ra,12(sp)
   13ccc:	00812403          	lw	s0,8(sp)
   13cd0:	00012903          	lw	s2,0(sp)
   13cd4:	00048513          	mv	a0,s1
   13cd8:	00412483          	lw	s1,4(sp)
   13cdc:	01010113          	addi	sp,sp,16
   13ce0:	00008067          	ret
   13ce4:	02052483          	lw	s1,32(a0)
   13ce8:	fe0480e3          	beqz	s1,13cc8 <stbi__get16be+0x48>
   13cec:	01052783          	lw	a5,16(a0)
   13cf0:	02452603          	lw	a2,36(a0)
   13cf4:	01c52503          	lw	a0,28(a0)
   13cf8:	02840913          	addi	s2,s0,40
   13cfc:	00090593          	mv	a1,s2
   13d00:	000780e7          	jalr	a5
   13d04:	0ac42703          	lw	a4,172(s0)
   13d08:	0b442683          	lw	a3,180(s0)
   13d0c:	0a842783          	lw	a5,168(s0)
   13d10:	00050493          	mv	s1,a0
   13d14:	40d70733          	sub	a4,a4,a3
   13d18:	00e787b3          	add	a5,a5,a4
   13d1c:	0af42423          	sw	a5,168(s0)
   13d20:	02940713          	addi	a4,s0,41
   13d24:	08051263          	bnez	a0,13da8 <stbi__get16be+0x128>
   13d28:	02042023          	sw	zero,32(s0)
   13d2c:	02040423          	sb	zero,40(s0)
   13d30:	0ae42823          	sw	a4,176(s0)
   13d34:	0ae42623          	sw	a4,172(s0)
   13d38:	02042783          	lw	a5,32(s0)
   13d3c:	f80786e3          	beqz	a5,13cc8 <stbi__get16be+0x48>
   13d40:	01042783          	lw	a5,16(s0)
   13d44:	02442603          	lw	a2,36(s0)
   13d48:	01c42503          	lw	a0,28(s0)
   13d4c:	02840913          	addi	s2,s0,40
   13d50:	00090593          	mv	a1,s2
   13d54:	000780e7          	jalr	a5
   13d58:	0ac42703          	lw	a4,172(s0)
   13d5c:	0b442683          	lw	a3,180(s0)
   13d60:	0a842783          	lw	a5,168(s0)
   13d64:	40d70733          	sub	a4,a4,a3
   13d68:	00e787b3          	add	a5,a5,a4
   13d6c:	0af42423          	sw	a5,168(s0)
   13d70:	02940793          	addi	a5,s0,41
   13d74:	04051663          	bnez	a0,13dc0 <stbi__get16be+0x140>
   13d78:	02042023          	sw	zero,32(s0)
   13d7c:	02040423          	sb	zero,40(s0)
   13d80:	00078913          	mv	s2,a5
   13d84:	0b242823          	sw	s2,176(s0)
   13d88:	00c12083          	lw	ra,12(sp)
   13d8c:	0af42623          	sw	a5,172(s0)
   13d90:	00812403          	lw	s0,8(sp)
   13d94:	00012903          	lw	s2,0(sp)
   13d98:	00048513          	mv	a0,s1
   13d9c:	00412483          	lw	s1,4(sp)
   13da0:	01010113          	addi	sp,sp,16
   13da4:	00008067          	ret
   13da8:	02844783          	lbu	a5,40(s0)
   13dac:	00a905b3          	add	a1,s2,a0
   13db0:	0ab42823          	sw	a1,176(s0)
   13db4:	00879493          	slli	s1,a5,0x8
   13db8:	0ae42623          	sw	a4,172(s0)
   13dbc:	ef9ff06f          	j	13cb4 <stbi__get16be+0x34>
   13dc0:	02844703          	lbu	a4,40(s0)
   13dc4:	00a90933          	add	s2,s2,a0
   13dc8:	00e484b3          	add	s1,s1,a4
   13dcc:	fb9ff06f          	j	13d84 <stbi__get16be+0x104>

00013dd0 <stbi__get16le>:
   13dd0:	0ac52783          	lw	a5,172(a0)
   13dd4:	0b052583          	lw	a1,176(a0)
   13dd8:	ff010113          	addi	sp,sp,-16
   13ddc:	00812423          	sw	s0,8(sp)
   13de0:	00112623          	sw	ra,12(sp)
   13de4:	00912223          	sw	s1,4(sp)
   13de8:	01212023          	sw	s2,0(sp)
   13dec:	00050413          	mv	s0,a0
   13df0:	04b7f263          	bgeu	a5,a1,13e34 <stbi__get16le+0x64>
   13df4:	00178713          	addi	a4,a5,1
   13df8:	0ae52623          	sw	a4,172(a0)
   13dfc:	0007c903          	lbu	s2,0(a5)
   13e00:	08b77463          	bgeu	a4,a1,13e88 <stbi__get16le+0xb8>
   13e04:	00170793          	addi	a5,a4,1
   13e08:	0af42623          	sw	a5,172(s0)
   13e0c:	00074783          	lbu	a5,0(a4)
   13e10:	00879793          	slli	a5,a5,0x8
   13e14:	00f90933          	add	s2,s2,a5
   13e18:	00c12083          	lw	ra,12(sp)
   13e1c:	00812403          	lw	s0,8(sp)
   13e20:	00412483          	lw	s1,4(sp)
   13e24:	00090513          	mv	a0,s2
   13e28:	00012903          	lw	s2,0(sp)
   13e2c:	01010113          	addi	sp,sp,16
   13e30:	00008067          	ret
   13e34:	02052903          	lw	s2,32(a0)
   13e38:	fe0900e3          	beqz	s2,13e18 <stbi__get16le+0x48>
   13e3c:	01052783          	lw	a5,16(a0)
   13e40:	02452603          	lw	a2,36(a0)
   13e44:	01c52503          	lw	a0,28(a0)
   13e48:	02840493          	addi	s1,s0,40
   13e4c:	00048593          	mv	a1,s1
   13e50:	000780e7          	jalr	a5
   13e54:	0ac42703          	lw	a4,172(s0)
   13e58:	0b442683          	lw	a3,180(s0)
   13e5c:	0a842783          	lw	a5,168(s0)
   13e60:	00050913          	mv	s2,a0
   13e64:	40d70733          	sub	a4,a4,a3
   13e68:	00e787b3          	add	a5,a5,a4
   13e6c:	0af42423          	sw	a5,168(s0)
   13e70:	02940713          	addi	a4,s0,41
   13e74:	08051263          	bnez	a0,13ef8 <stbi__get16le+0x128>
   13e78:	02042023          	sw	zero,32(s0)
   13e7c:	02040423          	sb	zero,40(s0)
   13e80:	0ae42823          	sw	a4,176(s0)
   13e84:	0ae42623          	sw	a4,172(s0)
   13e88:	02042783          	lw	a5,32(s0)
   13e8c:	f80786e3          	beqz	a5,13e18 <stbi__get16le+0x48>
   13e90:	01042783          	lw	a5,16(s0)
   13e94:	02442603          	lw	a2,36(s0)
   13e98:	01c42503          	lw	a0,28(s0)
   13e9c:	02840493          	addi	s1,s0,40
   13ea0:	00048593          	mv	a1,s1
   13ea4:	000780e7          	jalr	a5
   13ea8:	0ac42703          	lw	a4,172(s0)
   13eac:	0b442683          	lw	a3,180(s0)
   13eb0:	0a842783          	lw	a5,168(s0)
   13eb4:	40d70733          	sub	a4,a4,a3
   13eb8:	00e787b3          	add	a5,a5,a4
   13ebc:	0af42423          	sw	a5,168(s0)
   13ec0:	02940793          	addi	a5,s0,41
   13ec4:	04051463          	bnez	a0,13f0c <stbi__get16le+0x13c>
   13ec8:	02042023          	sw	zero,32(s0)
   13ecc:	02040423          	sb	zero,40(s0)
   13ed0:	00078493          	mv	s1,a5
   13ed4:	0a942823          	sw	s1,176(s0)
   13ed8:	00c12083          	lw	ra,12(sp)
   13edc:	0af42623          	sw	a5,172(s0)
   13ee0:	00812403          	lw	s0,8(sp)
   13ee4:	00412483          	lw	s1,4(sp)
   13ee8:	00090513          	mv	a0,s2
   13eec:	00012903          	lw	s2,0(sp)
   13ef0:	01010113          	addi	sp,sp,16
   13ef4:	00008067          	ret
   13ef8:	00a485b3          	add	a1,s1,a0
   13efc:	02844903          	lbu	s2,40(s0)
   13f00:	0ab42823          	sw	a1,176(s0)
   13f04:	0ae42623          	sw	a4,172(s0)
   13f08:	ef9ff06f          	j	13e00 <stbi__get16le+0x30>
   13f0c:	02844703          	lbu	a4,40(s0)
   13f10:	00a484b3          	add	s1,s1,a0
   13f14:	00871713          	slli	a4,a4,0x8
   13f18:	00e90933          	add	s2,s2,a4
   13f1c:	fb9ff06f          	j	13ed4 <stbi__get16le+0x104>

00013f20 <stbi__get32le>:
   13f20:	0ac52783          	lw	a5,172(a0)
   13f24:	0b052583          	lw	a1,176(a0)
   13f28:	fe010113          	addi	sp,sp,-32
   13f2c:	00812c23          	sw	s0,24(sp)
   13f30:	00112e23          	sw	ra,28(sp)
   13f34:	00912a23          	sw	s1,20(sp)
   13f38:	01212823          	sw	s2,16(sp)
   13f3c:	01312623          	sw	s3,12(sp)
   13f40:	00050413          	mv	s0,a0
   13f44:	06b7fa63          	bgeu	a5,a1,13fb8 <stbi__get32le+0x98>
   13f48:	00178693          	addi	a3,a5,1
   13f4c:	0ad52623          	sw	a3,172(a0)
   13f50:	0007c983          	lbu	s3,0(a5)
   13f54:	0cb6f263          	bgeu	a3,a1,14018 <stbi__get32le+0xf8>
   13f58:	00168713          	addi	a4,a3,1
   13f5c:	0ae42623          	sw	a4,172(s0)
   13f60:	0006c903          	lbu	s2,0(a3)
   13f64:	00891913          	slli	s2,s2,0x8
   13f68:	01390933          	add	s2,s2,s3
   13f6c:	10b77063          	bgeu	a4,a1,1406c <stbi__get32le+0x14c>
   13f70:	00170793          	addi	a5,a4,1
   13f74:	0af42623          	sw	a5,172(s0)
   13f78:	00074483          	lbu	s1,0(a4)
   13f7c:	14b7f263          	bgeu	a5,a1,140c0 <stbi__get32le+0x1a0>
   13f80:	00178713          	addi	a4,a5,1
   13f84:	0ae42623          	sw	a4,172(s0)
   13f88:	0007c783          	lbu	a5,0(a5)
   13f8c:	00879793          	slli	a5,a5,0x8
   13f90:	00f484b3          	add	s1,s1,a5
   13f94:	01c12083          	lw	ra,28(sp)
   13f98:	01812403          	lw	s0,24(sp)
   13f9c:	01049493          	slli	s1,s1,0x10
   13fa0:	01248533          	add	a0,s1,s2
   13fa4:	00c12983          	lw	s3,12(sp)
   13fa8:	01412483          	lw	s1,20(sp)
   13fac:	01012903          	lw	s2,16(sp)
   13fb0:	02010113          	addi	sp,sp,32
   13fb4:	00008067          	ret
   13fb8:	02052783          	lw	a5,32(a0)
   13fbc:	00000913          	li	s2,0
   13fc0:	00079663          	bnez	a5,13fcc <stbi__get32le+0xac>
   13fc4:	00000493          	li	s1,0
   13fc8:	fcdff06f          	j	13f94 <stbi__get32le+0x74>
   13fcc:	01052783          	lw	a5,16(a0)
   13fd0:	02452603          	lw	a2,36(a0)
   13fd4:	01c52503          	lw	a0,28(a0)
   13fd8:	02840493          	addi	s1,s0,40
   13fdc:	00048593          	mv	a1,s1
   13fe0:	000780e7          	jalr	a5
   13fe4:	0b442683          	lw	a3,180(s0)
   13fe8:	0ac42703          	lw	a4,172(s0)
   13fec:	0a842783          	lw	a5,168(s0)
   13ff0:	00050993          	mv	s3,a0
   13ff4:	40d70733          	sub	a4,a4,a3
   13ff8:	00e787b3          	add	a5,a5,a4
   13ffc:	0af42423          	sw	a5,168(s0)
   14000:	02940693          	addi	a3,s0,41
   14004:	12051863          	bnez	a0,14134 <stbi__get32le+0x214>
   14008:	02042023          	sw	zero,32(s0)
   1400c:	02040423          	sb	zero,40(s0)
   14010:	0ad42823          	sw	a3,176(s0)
   14014:	0ad42623          	sw	a3,172(s0)
   14018:	02042783          	lw	a5,32(s0)
   1401c:	14078a63          	beqz	a5,14170 <stbi__get32le+0x250>
   14020:	01042783          	lw	a5,16(s0)
   14024:	02442603          	lw	a2,36(s0)
   14028:	01c42503          	lw	a0,28(s0)
   1402c:	02840493          	addi	s1,s0,40
   14030:	00048593          	mv	a1,s1
   14034:	000780e7          	jalr	a5
   14038:	0ac42703          	lw	a4,172(s0)
   1403c:	0b442683          	lw	a3,180(s0)
   14040:	0a842783          	lw	a5,168(s0)
   14044:	40d70733          	sub	a4,a4,a3
   14048:	00e787b3          	add	a5,a5,a4
   1404c:	0af42423          	sw	a5,168(s0)
   14050:	02940713          	addi	a4,s0,41
   14054:	0c051263          	bnez	a0,14118 <stbi__get32le+0x1f8>
   14058:	02042023          	sw	zero,32(s0)
   1405c:	02040423          	sb	zero,40(s0)
   14060:	0ae42823          	sw	a4,176(s0)
   14064:	0ae42623          	sw	a4,172(s0)
   14068:	00098913          	mv	s2,s3
   1406c:	02042783          	lw	a5,32(s0)
   14070:	f4078ae3          	beqz	a5,13fc4 <stbi__get32le+0xa4>
   14074:	01042783          	lw	a5,16(s0)
   14078:	02442603          	lw	a2,36(s0)
   1407c:	01c42503          	lw	a0,28(s0)
   14080:	02840993          	addi	s3,s0,40
   14084:	00098593          	mv	a1,s3
   14088:	000780e7          	jalr	a5
   1408c:	0ac42703          	lw	a4,172(s0)
   14090:	0b442683          	lw	a3,180(s0)
   14094:	0a842783          	lw	a5,168(s0)
   14098:	00050493          	mv	s1,a0
   1409c:	40d70733          	sub	a4,a4,a3
   140a0:	00e787b3          	add	a5,a5,a4
   140a4:	0af42423          	sw	a5,168(s0)
   140a8:	02940793          	addi	a5,s0,41
   140ac:	08051e63          	bnez	a0,14148 <stbi__get32le+0x228>
   140b0:	02042023          	sw	zero,32(s0)
   140b4:	02040423          	sb	zero,40(s0)
   140b8:	0af42823          	sw	a5,176(s0)
   140bc:	0af42623          	sw	a5,172(s0)
   140c0:	02042783          	lw	a5,32(s0)
   140c4:	ec0788e3          	beqz	a5,13f94 <stbi__get32le+0x74>
   140c8:	01042783          	lw	a5,16(s0)
   140cc:	02442603          	lw	a2,36(s0)
   140d0:	01c42503          	lw	a0,28(s0)
   140d4:	02840993          	addi	s3,s0,40
   140d8:	00098593          	mv	a1,s3
   140dc:	000780e7          	jalr	a5
   140e0:	0ac42703          	lw	a4,172(s0)
   140e4:	0b442683          	lw	a3,180(s0)
   140e8:	0a842783          	lw	a5,168(s0)
   140ec:	40d70733          	sub	a4,a4,a3
   140f0:	00e787b3          	add	a5,a5,a4
   140f4:	0af42423          	sw	a5,168(s0)
   140f8:	02940793          	addi	a5,s0,41
   140fc:	06051063          	bnez	a0,1415c <stbi__get32le+0x23c>
   14100:	02042023          	sw	zero,32(s0)
   14104:	02040423          	sb	zero,40(s0)
   14108:	00078993          	mv	s3,a5
   1410c:	0b342823          	sw	s3,176(s0)
   14110:	0af42623          	sw	a5,172(s0)
   14114:	e81ff06f          	j	13f94 <stbi__get32le+0x74>
   14118:	02844903          	lbu	s2,40(s0)
   1411c:	00a485b3          	add	a1,s1,a0
   14120:	0ab42823          	sw	a1,176(s0)
   14124:	00891913          	slli	s2,s2,0x8
   14128:	01390933          	add	s2,s2,s3
   1412c:	0ae42623          	sw	a4,172(s0)
   14130:	e3dff06f          	j	13f6c <stbi__get32le+0x4c>
   14134:	00a485b3          	add	a1,s1,a0
   14138:	02844983          	lbu	s3,40(s0)
   1413c:	0ab42823          	sw	a1,176(s0)
   14140:	0ad42623          	sw	a3,172(s0)
   14144:	e11ff06f          	j	13f54 <stbi__get32le+0x34>
   14148:	00a985b3          	add	a1,s3,a0
   1414c:	02844483          	lbu	s1,40(s0)
   14150:	0ab42823          	sw	a1,176(s0)
   14154:	0af42623          	sw	a5,172(s0)
   14158:	e25ff06f          	j	13f7c <stbi__get32le+0x5c>
   1415c:	02844703          	lbu	a4,40(s0)
   14160:	00a989b3          	add	s3,s3,a0
   14164:	00871713          	slli	a4,a4,0x8
   14168:	00e484b3          	add	s1,s1,a4
   1416c:	fa1ff06f          	j	1410c <stbi__get32le+0x1ec>
   14170:	00098913          	mv	s2,s3
   14174:	00000493          	li	s1,0
   14178:	e1dff06f          	j	13f94 <stbi__get32le+0x74>

0001417c <stbi__hdr_gettoken>:
   1417c:	0ac52783          	lw	a5,172(a0)
   14180:	0b052703          	lw	a4,176(a0)
   14184:	fd010113          	addi	sp,sp,-48
   14188:	02812423          	sw	s0,40(sp)
   1418c:	01312e23          	sw	s3,28(sp)
   14190:	01412c23          	sw	s4,24(sp)
   14194:	02112623          	sw	ra,44(sp)
   14198:	02912223          	sw	s1,36(sp)
   1419c:	03212023          	sw	s2,32(sp)
   141a0:	01512a23          	sw	s5,20(sp)
   141a4:	01612823          	sw	s6,16(sp)
   141a8:	01712623          	sw	s7,12(sp)
   141ac:	01052983          	lw	s3,16(a0)
   141b0:	00050413          	mv	s0,a0
   141b4:	00058a13          	mv	s4,a1
   141b8:	14e7f863          	bgeu	a5,a4,14308 <stbi__hdr_gettoken+0x18c>
   141bc:	00178713          	addi	a4,a5,1
   141c0:	0ae52623          	sw	a4,172(a0)
   141c4:	0007c903          	lbu	s2,0(a5)
   141c8:	00000493          	li	s1,0
   141cc:	00a00a93          	li	s5,10
   141d0:	3fe00b13          	li	s6,1022
   141d4:	00098e63          	beqz	s3,141f0 <stbi__hdr_gettoken+0x74>
   141d8:	01842783          	lw	a5,24(s0)
   141dc:	01c42503          	lw	a0,28(s0)
   141e0:	000780e7          	jalr	a5
   141e4:	00050c63          	beqz	a0,141fc <stbi__hdr_gettoken+0x80>
   141e8:	02042783          	lw	a5,32(s0)
   141ec:	08078463          	beqz	a5,14274 <stbi__hdr_gettoken+0xf8>
   141f0:	0ac42703          	lw	a4,172(s0)
   141f4:	0b042783          	lw	a5,176(s0)
   141f8:	06f77e63          	bgeu	a4,a5,14274 <stbi__hdr_gettoken+0xf8>
   141fc:	07590c63          	beq	s2,s5,14274 <stbi__hdr_gettoken+0xf8>
   14200:	009a07b3          	add	a5,s4,s1
   14204:	01278023          	sb	s2,0(a5)
   14208:	03648463          	beq	s1,s6,14230 <stbi__hdr_gettoken+0xb4>
   1420c:	0ac42783          	lw	a5,172(s0)
   14210:	0b042703          	lw	a4,176(s0)
   14214:	01042983          	lw	s3,16(s0)
   14218:	08e7fa63          	bgeu	a5,a4,142ac <stbi__hdr_gettoken+0x130>
   1421c:	00178713          	addi	a4,a5,1
   14220:	0ae42623          	sw	a4,172(s0)
   14224:	0007c903          	lbu	s2,0(a5)
   14228:	00148493          	addi	s1,s1,1
   1422c:	fa9ff06f          	j	141d4 <stbi__hdr_gettoken+0x58>
   14230:	01042983          	lw	s3,16(s0)
   14234:	00a00493          	li	s1,10
   14238:	00098e63          	beqz	s3,14254 <stbi__hdr_gettoken+0xd8>
   1423c:	01842783          	lw	a5,24(s0)
   14240:	01c42503          	lw	a0,28(s0)
   14244:	000780e7          	jalr	a5
   14248:	16050063          	beqz	a0,143a8 <stbi__hdr_gettoken+0x22c>
   1424c:	02042783          	lw	a5,32(s0)
   14250:	02078063          	beqz	a5,14270 <stbi__hdr_gettoken+0xf4>
   14254:	0ac42783          	lw	a5,172(s0)
   14258:	0b042703          	lw	a4,176(s0)
   1425c:	00e7fa63          	bgeu	a5,a4,14270 <stbi__hdr_gettoken+0xf4>
   14260:	00178693          	addi	a3,a5,1
   14264:	0ad42623          	sw	a3,172(s0)
   14268:	0007c783          	lbu	a5,0(a5)
   1426c:	10979a63          	bne	a5,s1,14380 <stbi__hdr_gettoken+0x204>
   14270:	3ff00493          	li	s1,1023
   14274:	009a04b3          	add	s1,s4,s1
   14278:	00048023          	sb	zero,0(s1)
   1427c:	02c12083          	lw	ra,44(sp)
   14280:	02812403          	lw	s0,40(sp)
   14284:	02412483          	lw	s1,36(sp)
   14288:	02012903          	lw	s2,32(sp)
   1428c:	01c12983          	lw	s3,28(sp)
   14290:	01412a83          	lw	s5,20(sp)
   14294:	01012b03          	lw	s6,16(sp)
   14298:	00c12b83          	lw	s7,12(sp)
   1429c:	000a0513          	mv	a0,s4
   142a0:	01812a03          	lw	s4,24(sp)
   142a4:	03010113          	addi	sp,sp,48
   142a8:	00008067          	ret
   142ac:	02042783          	lw	a5,32(s0)
   142b0:	00000913          	li	s2,0
   142b4:	f6078ae3          	beqz	a5,14228 <stbi__hdr_gettoken+0xac>
   142b8:	02442603          	lw	a2,36(s0)
   142bc:	01c42503          	lw	a0,28(s0)
   142c0:	02840b93          	addi	s7,s0,40
   142c4:	000b8593          	mv	a1,s7
   142c8:	000980e7          	jalr	s3
   142cc:	0ac42703          	lw	a4,172(s0)
   142d0:	0b442683          	lw	a3,180(s0)
   142d4:	0a842783          	lw	a5,168(s0)
   142d8:	40d70733          	sub	a4,a4,a3
   142dc:	00e787b3          	add	a5,a5,a4
   142e0:	0af42423          	sw	a5,168(s0)
   142e4:	02940793          	addi	a5,s0,41
   142e8:	06050e63          	beqz	a0,14364 <stbi__hdr_gettoken+0x1e8>
   142ec:	02844903          	lbu	s2,40(s0)
   142f0:	00ab8bb3          	add	s7,s7,a0
   142f4:	01042983          	lw	s3,16(s0)
   142f8:	0b742823          	sw	s7,176(s0)
   142fc:	0af42623          	sw	a5,172(s0)
   14300:	00148493          	addi	s1,s1,1
   14304:	ed1ff06f          	j	141d4 <stbi__hdr_gettoken+0x58>
   14308:	02052783          	lw	a5,32(a0)
   1430c:	00000913          	li	s2,0
   14310:	ea078ce3          	beqz	a5,141c8 <stbi__hdr_gettoken+0x4c>
   14314:	02452603          	lw	a2,36(a0)
   14318:	01c52503          	lw	a0,28(a0)
   1431c:	02840493          	addi	s1,s0,40
   14320:	00048593          	mv	a1,s1
   14324:	000980e7          	jalr	s3
   14328:	0ac42703          	lw	a4,172(s0)
   1432c:	0b442683          	lw	a3,180(s0)
   14330:	0a842783          	lw	a5,168(s0)
   14334:	40d70733          	sub	a4,a4,a3
   14338:	00e787b3          	add	a5,a5,a4
   1433c:	0af42423          	sw	a5,168(s0)
   14340:	02940793          	addi	a5,s0,41
   14344:	02051863          	bnez	a0,14374 <stbi__hdr_gettoken+0x1f8>
   14348:	02042023          	sw	zero,32(s0)
   1434c:	02040423          	sb	zero,40(s0)
   14350:	00078493          	mv	s1,a5
   14354:	01042983          	lw	s3,16(s0)
   14358:	0a942823          	sw	s1,176(s0)
   1435c:	0af42623          	sw	a5,172(s0)
   14360:	e69ff06f          	j	141c8 <stbi__hdr_gettoken+0x4c>
   14364:	02042023          	sw	zero,32(s0)
   14368:	02040423          	sb	zero,40(s0)
   1436c:	00078b93          	mv	s7,a5
   14370:	f85ff06f          	j	142f4 <stbi__hdr_gettoken+0x178>
   14374:	02844903          	lbu	s2,40(s0)
   14378:	00a484b3          	add	s1,s1,a0
   1437c:	fd9ff06f          	j	14354 <stbi__hdr_gettoken+0x1d8>
   14380:	0a099263          	bnez	s3,14424 <stbi__hdr_gettoken+0x2a8>
   14384:	00a00613          	li	a2,10
   14388:	00068793          	mv	a5,a3
   1438c:	00168693          	addi	a3,a3,1
   14390:	eee7f0e3          	bgeu	a5,a4,14270 <stbi__hdr_gettoken+0xf4>
   14394:	0ad42623          	sw	a3,172(s0)
   14398:	0007c783          	lbu	a5,0(a5)
   1439c:	fec796e3          	bne	a5,a2,14388 <stbi__hdr_gettoken+0x20c>
   143a0:	3ff00493          	li	s1,1023
   143a4:	ed1ff06f          	j	14274 <stbi__hdr_gettoken+0xf8>
   143a8:	0ac42783          	lw	a5,172(s0)
   143ac:	0b042703          	lw	a4,176(s0)
   143b0:	06e7ee63          	bltu	a5,a4,1442c <stbi__hdr_gettoken+0x2b0>
   143b4:	02042783          	lw	a5,32(s0)
   143b8:	01042983          	lw	s3,16(s0)
   143bc:	e6078ee3          	beqz	a5,14238 <stbi__hdr_gettoken+0xbc>
   143c0:	02442603          	lw	a2,36(s0)
   143c4:	01c42503          	lw	a0,28(s0)
   143c8:	02840913          	addi	s2,s0,40
   143cc:	00090593          	mv	a1,s2
   143d0:	000980e7          	jalr	s3
   143d4:	0ac42703          	lw	a4,172(s0)
   143d8:	0b442683          	lw	a3,180(s0)
   143dc:	0a842783          	lw	a5,168(s0)
   143e0:	40d70733          	sub	a4,a4,a3
   143e4:	00e787b3          	add	a5,a5,a4
   143e8:	0af42423          	sw	a5,168(s0)
   143ec:	02940793          	addi	a5,s0,41
   143f0:	00051e63          	bnez	a0,1440c <stbi__hdr_gettoken+0x290>
   143f4:	01042983          	lw	s3,16(s0)
   143f8:	02042023          	sw	zero,32(s0)
   143fc:	02040423          	sb	zero,40(s0)
   14400:	0af42823          	sw	a5,176(s0)
   14404:	0af42623          	sw	a5,172(s0)
   14408:	e31ff06f          	j	14238 <stbi__hdr_gettoken+0xbc>
   1440c:	02844703          	lbu	a4,40(s0)
   14410:	00a90933          	add	s2,s2,a0
   14414:	0af42623          	sw	a5,172(s0)
   14418:	0b242823          	sw	s2,176(s0)
   1441c:	00a00793          	li	a5,10
   14420:	e4f708e3          	beq	a4,a5,14270 <stbi__hdr_gettoken+0xf4>
   14424:	01042983          	lw	s3,16(s0)
   14428:	e11ff06f          	j	14238 <stbi__hdr_gettoken+0xbc>
   1442c:	00178713          	addi	a4,a5,1
   14430:	0ae42623          	sw	a4,172(s0)
   14434:	0007c703          	lbu	a4,0(a5)
   14438:	00a00793          	li	a5,10
   1443c:	fef714e3          	bne	a4,a5,14424 <stbi__hdr_gettoken+0x2a8>
   14440:	3ff00493          	li	s1,1023
   14444:	e31ff06f          	j	14274 <stbi__hdr_gettoken+0xf8>

00014448 <stbi__compute_huffman_codes>:
   14448:	81010113          	addi	sp,sp,-2032
   1444c:	7e812423          	sw	s0,2024(sp)
   14450:	00852403          	lw	s0,8(a0)
   14454:	7e912223          	sw	s1,2020(sp)
   14458:	7d312e23          	sw	s3,2012(sp)
   1445c:	7e112623          	sw	ra,2028(sp)
   14460:	7f212023          	sw	s2,2016(sp)
   14464:	7d412c23          	sw	s4,2008(sp)
   14468:	7d512a23          	sw	s5,2004(sp)
   1446c:	7d612823          	sw	s6,2000(sp)
   14470:	7d712623          	sw	s7,1996(sp)
   14474:	7d812423          	sw	s8,1992(sp)
   14478:	7d912223          	sw	s9,1988(sp)
   1447c:	7da12023          	sw	s10,1984(sp)
   14480:	7bb12e23          	sw	s11,1980(sp)
   14484:	00400793          	li	a5,4
   14488:	01052983          	lw	s3,16(a0)
   1448c:	d9010113          	addi	sp,sp,-624
   14490:	00050493          	mv	s1,a0
   14494:	4887d8e3          	bge	a5,s0,15124 <stbi__compute_huffman_codes+0xcdc>
   14498:	0059d913          	srli	s2,s3,0x5
   1449c:	ffb40413          	addi	s0,s0,-5
   144a0:	0124a823          	sw	s2,16(s1)
   144a4:	0084a423          	sw	s0,8(s1)
   144a8:	00400793          	li	a5,4
   144ac:	3a87dce3          	bge	a5,s0,15064 <stbi__compute_huffman_codes+0xc1c>
   144b0:	00595713          	srli	a4,s2,0x5
   144b4:	ffb40413          	addi	s0,s0,-5
   144b8:	00e4a823          	sw	a4,16(s1)
   144bc:	0084a423          	sw	s0,8(s1)
   144c0:	00300793          	li	a5,3
   144c4:	4087d0e3          	bge	a5,s0,150c4 <stbi__compute_huffman_codes+0xc7c>
   144c8:	fffff637          	lui	a2,0xfffff
   144cc:	000017b7          	lui	a5,0x1
   144d0:	60060613          	addi	a2,a2,1536 # fffff600 <_rgmii_lvl2fifo+0xf0aff600>
   144d4:	a0078793          	addi	a5,a5,-1536 # a00 <_ZL22stbi__g_failure_reason+0x9e8>
   144d8:	00c787b3          	add	a5,a5,a2
   144dc:	02010693          	addi	a3,sp,32
   144e0:	00d78633          	add	a2,a5,a3
   144e4:	ffc40413          	addi	s0,s0,-4
   144e8:	00475793          	srli	a5,a4,0x4
   144ec:	0003d537          	lui	a0,0x3d
   144f0:	00f77713          	andi	a4,a4,15
   144f4:	fffffa37          	lui	s4,0xfffff
   144f8:	00f4a823          	sw	a5,16(s1)
   144fc:	0084a423          	sw	s0,8(s1)
   14500:	00470313          	addi	t1,a4,4
   14504:	00062023          	sw	zero,0(a2)
   14508:	00062223          	sw	zero,4(a2)
   1450c:	00062423          	sw	zero,8(a2)
   14510:	00062623          	sw	zero,12(a2)
   14514:	00061823          	sh	zero,16(a2)
   14518:	00060923          	sb	zero,18(a2)
   1451c:	a4450513          	addi	a0,a0,-1468 # 3ca44 <_ZZ27stbi__compute_huffman_codesE15length_dezigzag>
   14520:	00000813          	li	a6,0
   14524:	00200e13          	li	t3,2
   14528:	01800893          	li	a7,24
   1452c:	768e5663          	bge	t3,s0,14c98 <stbi__compute_huffman_codes+0x850>
   14530:	0077f693          	andi	a3,a5,7
   14534:	ffd40413          	addi	s0,s0,-3
   14538:	0037d793          	srli	a5,a5,0x3
   1453c:	00f4a823          	sw	a5,16(s1)
   14540:	0084a423          	sw	s0,8(s1)
   14544:	00054703          	lbu	a4,0(a0)
   14548:	a2010613          	addi	a2,sp,-1504
   1454c:	00180813          	addi	a6,a6,1
   14550:	00e60733          	add	a4,a2,a4
   14554:	60d70023          	sb	a3,1536(a4)
   14558:	00150513          	addi	a0,a0,1
   1455c:	fc6848e3          	blt	a6,t1,1452c <stbi__compute_huffman_codes+0xe4>
   14560:	00001ab7          	lui	s5,0x1
   14564:	654a0513          	addi	a0,s4,1620 # fffff654 <_rgmii_lvl2fifo+0xf0aff654>
   14568:	a00a8793          	addi	a5,s5,-1536 # a00 <_ZL22stbi__g_failure_reason+0x9e8>
   1456c:	00a787b3          	add	a5,a5,a0
   14570:	02010713          	addi	a4,sp,32
   14574:	00e78533          	add	a0,a5,a4
   14578:	04400613          	li	a2,68
   1457c:	00000593          	li	a1,0
   14580:	4e9120ef          	jal	ra,27268 <memset>
   14584:	40000613          	li	a2,1024
   14588:	00000593          	li	a1,0
   1458c:	23c10513          	addi	a0,sp,572
   14590:	4d9120ef          	jal	ra,27268 <memset>
   14594:	600a0693          	addi	a3,s4,1536
   14598:	a00a8793          	addi	a5,s5,-1536
   1459c:	00d787b3          	add	a5,a5,a3
   145a0:	02010713          	addi	a4,sp,32
   145a4:	00e786b3          	add	a3,a5,a4
   145a8:	a00a8613          	addi	a2,s5,-1536
   145ac:	fffff7b7          	lui	a5,0xfffff
   145b0:	00f60633          	add	a2,a2,a5
   145b4:	02010793          	addi	a5,sp,32
   145b8:	00f607b3          	add	a5,a2,a5
   145bc:	01368593          	addi	a1,a3,19
   145c0:	00068713          	mv	a4,a3
   145c4:	00f12423          	sw	a5,8(sp)
   145c8:	00074783          	lbu	a5,0(a4)
   145cc:	00812603          	lw	a2,8(sp)
   145d0:	00170713          	addi	a4,a4,1
   145d4:	00279793          	slli	a5,a5,0x2
   145d8:	00f607b3          	add	a5,a2,a5
   145dc:	6547a603          	lw	a2,1620(a5) # fffff654 <_rgmii_lvl2fifo+0xf0aff654>
   145e0:	00160613          	addi	a2,a2,1
   145e4:	64c7aa23          	sw	a2,1620(a5)
   145e8:	feb710e3          	bne	a4,a1,145c8 <stbi__compute_huffman_codes+0x180>
   145ec:	00812783          	lw	a5,8(sp)
   145f0:	6587a803          	lw	a6,1624(a5)
   145f4:	6407aa23          	sw	zero,1620(a5)
   145f8:	00200793          	li	a5,2
   145fc:	6f07cc63          	blt	a5,a6,14cf4 <stbi__compute_huffman_codes+0x8ac>
   14600:	00812783          	lw	a5,8(sp)
   14604:	65c7ab03          	lw	s6,1628(a5)
   14608:	00400793          	li	a5,4
   1460c:	6f67c463          	blt	a5,s6,14cf4 <stbi__compute_huffman_codes+0x8ac>
   14610:	00812783          	lw	a5,8(sp)
   14614:	00800713          	li	a4,8
   14618:	6607a783          	lw	a5,1632(a5)
   1461c:	6cf74c63          	blt	a4,a5,14cf4 <stbi__compute_huffman_codes+0x8ac>
   14620:	00812703          	lw	a4,8(sp)
   14624:	66472a83          	lw	s5,1636(a4)
   14628:	01000713          	li	a4,16
   1462c:	6d574463          	blt	a4,s5,14cf4 <stbi__compute_huffman_codes+0x8ac>
   14630:	00812703          	lw	a4,8(sp)
   14634:	66872a03          	lw	s4,1640(a4)
   14638:	02000713          	li	a4,32
   1463c:	6b474c63          	blt	a4,s4,14cf4 <stbi__compute_huffman_codes+0x8ac>
   14640:	00812703          	lw	a4,8(sp)
   14644:	66c72383          	lw	t2,1644(a4)
   14648:	04000713          	li	a4,64
   1464c:	6a774463          	blt	a4,t2,14cf4 <stbi__compute_huffman_codes+0x8ac>
   14650:	00812703          	lw	a4,8(sp)
   14654:	67072283          	lw	t0,1648(a4)
   14658:	08000713          	li	a4,128
   1465c:	68574c63          	blt	a4,t0,14cf4 <stbi__compute_huffman_codes+0x8ac>
   14660:	00812703          	lw	a4,8(sp)
   14664:	67472f83          	lw	t6,1652(a4)
   14668:	10000713          	li	a4,256
   1466c:	69f74463          	blt	a4,t6,14cf4 <stbi__compute_huffman_codes+0x8ac>
   14670:	00812703          	lw	a4,8(sp)
   14674:	67872f03          	lw	t5,1656(a4)
   14678:	20000713          	li	a4,512
   1467c:	67e74c63          	blt	a4,t5,14cf4 <stbi__compute_huffman_codes+0x8ac>
   14680:	00001637          	lui	a2,0x1
   14684:	fffff737          	lui	a4,0xfffff
   14688:	a0060613          	addi	a2,a2,-1536 # a00 <_ZL22stbi__g_failure_reason+0x9e8>
   1468c:	00e60633          	add	a2,a2,a4
   14690:	02010713          	addi	a4,sp,32
   14694:	00e60733          	add	a4,a2,a4
   14698:	67c72e83          	lw	t4,1660(a4) # fffff67c <_rgmii_lvl2fifo+0xf0aff67c>
   1469c:	00e12423          	sw	a4,8(sp)
   146a0:	40000713          	li	a4,1024
   146a4:	65d74863          	blt	a4,t4,14cf4 <stbi__compute_huffman_codes+0x8ac>
   146a8:	00812703          	lw	a4,8(sp)
   146ac:	68072303          	lw	t1,1664(a4)
   146b0:	00001737          	lui	a4,0x1
   146b4:	80070613          	addi	a2,a4,-2048 # 800 <_ZL22stbi__g_failure_reason+0x7e8>
   146b8:	62664e63          	blt	a2,t1,14cf4 <stbi__compute_huffman_codes+0x8ac>
   146bc:	00812603          	lw	a2,8(sp)
   146c0:	68462883          	lw	a7,1668(a2)
   146c4:	63174863          	blt	a4,a7,14cf4 <stbi__compute_huffman_codes+0x8ac>
   146c8:	68862503          	lw	a0,1672(a2)
   146cc:	00002737          	lui	a4,0x2
   146d0:	62a74263          	blt	a4,a0,14cf4 <stbi__compute_huffman_codes+0x8ac>
   146d4:	68c62583          	lw	a1,1676(a2)
   146d8:	00004737          	lui	a4,0x4
   146dc:	60b74c63          	blt	a4,a1,14cf4 <stbi__compute_huffman_codes+0x8ac>
   146e0:	69062603          	lw	a2,1680(a2)
   146e4:	00008737          	lui	a4,0x8
   146e8:	60c74663          	blt	a4,a2,14cf4 <stbi__compute_huffman_codes+0x8ac>
   146ec:	00812b83          	lw	s7,8(sp)
   146f0:	00181713          	slli	a4,a6,0x1
   146f4:	00f81e13          	slli	t3,a6,0xf
   146f8:	60ebae23          	sw	a4,1564(s7)
   146fc:	64e11023          	sh	a4,1600(sp)
   14700:	600bac23          	sw	zero,1560(s7)
   14704:	62011f23          	sh	zero,1598(sp)
   14708:	6a011123          	sh	zero,1698(sp)
   1470c:	67c12023          	sw	t3,1632(sp)
   14710:	6b011223          	sh	a6,1700(sp)
   14714:	00eb0733          	add	a4,s6,a4
   14718:	000b0663          	beqz	s6,14724 <stbi__compute_huffman_codes+0x2dc>
   1471c:	00400e13          	li	t3,4
   14720:	6aee4c63          	blt	t3,a4,14dd8 <stbi__compute_huffman_codes+0x990>
   14724:	00171e13          	slli	t3,a4,0x1
   14728:	00e71713          	slli	a4,a4,0xe
   1472c:	66e12223          	sw	a4,1636(sp)
   14730:	00001737          	lui	a4,0x1
   14734:	01680833          	add	a6,a6,s6
   14738:	a0070713          	addi	a4,a4,-1536 # a00 <_ZL22stbi__g_failure_reason+0x9e8>
   1473c:	fffffb37          	lui	s6,0xfffff
   14740:	01670733          	add	a4,a4,s6
   14744:	02010b13          	addi	s6,sp,32
   14748:	01670733          	add	a4,a4,s6
   1474c:	63c72023          	sw	t3,1568(a4)
   14750:	65c11123          	sh	t3,1602(sp)
   14754:	00e12423          	sw	a4,8(sp)
   14758:	6b011323          	sh	a6,1702(sp)
   1475c:	01c78e33          	add	t3,a5,t3
   14760:	00078663          	beqz	a5,1476c <stbi__compute_huffman_codes+0x324>
   14764:	00800713          	li	a4,8
   14768:	67c74863          	blt	a4,t3,14dd8 <stbi__compute_huffman_codes+0x990>
   1476c:	001e1713          	slli	a4,t3,0x1
   14770:	00de1e13          	slli	t3,t3,0xd
   14774:	67c12423          	sw	t3,1640(sp)
   14778:	00001e37          	lui	t3,0x1
   1477c:	010787b3          	add	a5,a5,a6
   14780:	a00e0e13          	addi	t3,t3,-1536 # a00 <_ZL22stbi__g_failure_reason+0x9e8>
   14784:	fffff837          	lui	a6,0xfffff
   14788:	010e0e33          	add	t3,t3,a6
   1478c:	02010813          	addi	a6,sp,32
   14790:	010e0833          	add	a6,t3,a6
   14794:	62e82223          	sw	a4,1572(a6) # fffff624 <_rgmii_lvl2fifo+0xf0aff624>
   14798:	64e11223          	sh	a4,1604(sp)
   1479c:	01012423          	sw	a6,8(sp)
   147a0:	6af11423          	sh	a5,1704(sp)
   147a4:	01570733          	add	a4,a4,s5
   147a8:	000a8663          	beqz	s5,147b4 <stbi__compute_huffman_codes+0x36c>
   147ac:	01000813          	li	a6,16
   147b0:	62e84463          	blt	a6,a4,14dd8 <stbi__compute_huffman_codes+0x990>
   147b4:	00171813          	slli	a6,a4,0x1
   147b8:	00c71713          	slli	a4,a4,0xc
   147bc:	66e12623          	sw	a4,1644(sp)
   147c0:	00001737          	lui	a4,0x1
   147c4:	fffffe37          	lui	t3,0xfffff
   147c8:	a0070713          	addi	a4,a4,-1536 # a00 <_ZL22stbi__g_failure_reason+0x9e8>
   147cc:	01c70733          	add	a4,a4,t3
   147d0:	02010e13          	addi	t3,sp,32
   147d4:	01c70733          	add	a4,a4,t3
   147d8:	015787b3          	add	a5,a5,s5
   147dc:	63072423          	sw	a6,1576(a4)
   147e0:	65011323          	sh	a6,1606(sp)
   147e4:	00e12423          	sw	a4,8(sp)
   147e8:	6af11523          	sh	a5,1706(sp)
   147ec:	01480833          	add	a6,a6,s4
   147f0:	000a0663          	beqz	s4,147fc <stbi__compute_huffman_codes+0x3b4>
   147f4:	02000713          	li	a4,32
   147f8:	5f074063          	blt	a4,a6,14dd8 <stbi__compute_huffman_codes+0x990>
   147fc:	00181713          	slli	a4,a6,0x1
   14800:	00b81813          	slli	a6,a6,0xb
   14804:	67012823          	sw	a6,1648(sp)
   14808:	00001837          	lui	a6,0x1
   1480c:	fffffe37          	lui	t3,0xfffff
   14810:	a0080813          	addi	a6,a6,-1536 # a00 <_ZL22stbi__g_failure_reason+0x9e8>
   14814:	01c80833          	add	a6,a6,t3
   14818:	02010e13          	addi	t3,sp,32
   1481c:	01c80833          	add	a6,a6,t3
   14820:	014787b3          	add	a5,a5,s4
   14824:	01012423          	sw	a6,8(sp)
   14828:	62e82623          	sw	a4,1580(a6)
   1482c:	64e11423          	sh	a4,1608(sp)
   14830:	6af11623          	sh	a5,1708(sp)
   14834:	00770833          	add	a6,a4,t2
   14838:	00038663          	beqz	t2,14844 <stbi__compute_huffman_codes+0x3fc>
   1483c:	04000713          	li	a4,64
   14840:	59074c63          	blt	a4,a6,14dd8 <stbi__compute_huffman_codes+0x990>
   14844:	00181713          	slli	a4,a6,0x1
   14848:	00a81813          	slli	a6,a6,0xa
   1484c:	67012a23          	sw	a6,1652(sp)
   14850:	00001837          	lui	a6,0x1
   14854:	fffffe37          	lui	t3,0xfffff
   14858:	a0080813          	addi	a6,a6,-1536 # a00 <_ZL22stbi__g_failure_reason+0x9e8>
   1485c:	01c80833          	add	a6,a6,t3
   14860:	02010e13          	addi	t3,sp,32
   14864:	01c80833          	add	a6,a6,t3
   14868:	007787b3          	add	a5,a5,t2
   1486c:	62e82823          	sw	a4,1584(a6)
   14870:	64e11523          	sh	a4,1610(sp)
   14874:	01012423          	sw	a6,8(sp)
   14878:	6af11723          	sh	a5,1710(sp)
   1487c:	00570733          	add	a4,a4,t0
   14880:	00028663          	beqz	t0,1488c <stbi__compute_huffman_codes+0x444>
   14884:	08000813          	li	a6,128
   14888:	54e84863          	blt	a6,a4,14dd8 <stbi__compute_huffman_codes+0x990>
   1488c:	00171813          	slli	a6,a4,0x1
   14890:	00971713          	slli	a4,a4,0x9
   14894:	66e12c23          	sw	a4,1656(sp)
   14898:	00001737          	lui	a4,0x1
   1489c:	fffffe37          	lui	t3,0xfffff
   148a0:	a0070713          	addi	a4,a4,-1536 # a00 <_ZL22stbi__g_failure_reason+0x9e8>
   148a4:	01c70733          	add	a4,a4,t3
   148a8:	02010e13          	addi	t3,sp,32
   148ac:	01c70733          	add	a4,a4,t3
   148b0:	005787b3          	add	a5,a5,t0
   148b4:	63072a23          	sw	a6,1588(a4)
   148b8:	65011623          	sh	a6,1612(sp)
   148bc:	00e12423          	sw	a4,8(sp)
   148c0:	6af11823          	sh	a5,1712(sp)
   148c4:	01f80833          	add	a6,a6,t6
   148c8:	000f8663          	beqz	t6,148d4 <stbi__compute_huffman_codes+0x48c>
   148cc:	10000713          	li	a4,256
   148d0:	51074463          	blt	a4,a6,14dd8 <stbi__compute_huffman_codes+0x990>
   148d4:	00181713          	slli	a4,a6,0x1
   148d8:	00881813          	slli	a6,a6,0x8
   148dc:	67012e23          	sw	a6,1660(sp)
   148e0:	00001837          	lui	a6,0x1
   148e4:	fffffe37          	lui	t3,0xfffff
   148e8:	a0080813          	addi	a6,a6,-1536 # a00 <_ZL22stbi__g_failure_reason+0x9e8>
   148ec:	01c80833          	add	a6,a6,t3
   148f0:	02010e13          	addi	t3,sp,32
   148f4:	01c80833          	add	a6,a6,t3
   148f8:	01f787b3          	add	a5,a5,t6
   148fc:	62e82c23          	sw	a4,1592(a6)
   14900:	64e11723          	sh	a4,1614(sp)
   14904:	01012423          	sw	a6,8(sp)
   14908:	6af11923          	sh	a5,1714(sp)
   1490c:	01e70733          	add	a4,a4,t5
   14910:	000f0663          	beqz	t5,1491c <stbi__compute_huffman_codes+0x4d4>
   14914:	20000813          	li	a6,512
   14918:	4ce84063          	blt	a6,a4,14dd8 <stbi__compute_huffman_codes+0x990>
   1491c:	00171813          	slli	a6,a4,0x1
   14920:	00771713          	slli	a4,a4,0x7
   14924:	68e12023          	sw	a4,1664(sp)
   14928:	00001737          	lui	a4,0x1
   1492c:	fffffe37          	lui	t3,0xfffff
   14930:	a0070713          	addi	a4,a4,-1536 # a00 <_ZL22stbi__g_failure_reason+0x9e8>
   14934:	01c70733          	add	a4,a4,t3
   14938:	02010e13          	addi	t3,sp,32
   1493c:	01c70733          	add	a4,a4,t3
   14940:	01e787b3          	add	a5,a5,t5
   14944:	63072e23          	sw	a6,1596(a4)
   14948:	65011823          	sh	a6,1616(sp)
   1494c:	00e12423          	sw	a4,8(sp)
   14950:	6af11a23          	sh	a5,1716(sp)
   14954:	01d80833          	add	a6,a6,t4
   14958:	000e8663          	beqz	t4,14964 <stbi__compute_huffman_codes+0x51c>
   1495c:	40000713          	li	a4,1024
   14960:	47074c63          	blt	a4,a6,14dd8 <stbi__compute_huffman_codes+0x990>
   14964:	00001e37          	lui	t3,0x1
   14968:	00181713          	slli	a4,a6,0x1
   1496c:	00681a13          	slli	s4,a6,0x6
   14970:	a00e0e13          	addi	t3,t3,-1536 # a00 <_ZL22stbi__g_failure_reason+0x9e8>
   14974:	fffff837          	lui	a6,0xfffff
   14978:	010e0e33          	add	t3,t3,a6
   1497c:	02010813          	addi	a6,sp,32
   14980:	010e0833          	add	a6,t3,a6
   14984:	01d787b3          	add	a5,a5,t4
   14988:	64e82023          	sw	a4,1600(a6) # fffff640 <_rgmii_lvl2fifo+0xf0aff640>
   1498c:	64e11923          	sh	a4,1618(sp)
   14990:	69412223          	sw	s4,1668(sp)
   14994:	01012423          	sw	a6,8(sp)
   14998:	6af11b23          	sh	a5,1718(sp)
   1499c:	00670733          	add	a4,a4,t1
   149a0:	00030863          	beqz	t1,149b0 <stbi__compute_huffman_codes+0x568>
   149a4:	00001837          	lui	a6,0x1
   149a8:	80080813          	addi	a6,a6,-2048 # 800 <_ZL22stbi__g_failure_reason+0x7e8>
   149ac:	42e84663          	blt	a6,a4,14dd8 <stbi__compute_huffman_codes+0x990>
   149b0:	006787b3          	add	a5,a5,t1
   149b4:	00001337          	lui	t1,0x1
   149b8:	00171813          	slli	a6,a4,0x1
   149bc:	00571a93          	slli	s5,a4,0x5
   149c0:	a0030313          	addi	t1,t1,-1536 # a00 <_ZL22stbi__g_failure_reason+0x9e8>
   149c4:	fffff737          	lui	a4,0xfffff
   149c8:	00e30333          	add	t1,t1,a4
   149cc:	02010713          	addi	a4,sp,32
   149d0:	00e30733          	add	a4,t1,a4
   149d4:	65072223          	sw	a6,1604(a4) # fffff644 <_rgmii_lvl2fifo+0xf0aff644>
   149d8:	65011a23          	sh	a6,1620(sp)
   149dc:	69512423          	sw	s5,1672(sp)
   149e0:	00e12423          	sw	a4,8(sp)
   149e4:	6af11c23          	sh	a5,1720(sp)
   149e8:	01180833          	add	a6,a6,a7
   149ec:	00088663          	beqz	a7,149f8 <stbi__compute_huffman_codes+0x5b0>
   149f0:	00001737          	lui	a4,0x1
   149f4:	3f074263          	blt	a4,a6,14dd8 <stbi__compute_huffman_codes+0x990>
   149f8:	011787b3          	add	a5,a5,a7
   149fc:	000018b7          	lui	a7,0x1
   14a00:	00181713          	slli	a4,a6,0x1
   14a04:	00481b13          	slli	s6,a6,0x4
   14a08:	a0088893          	addi	a7,a7,-1536 # a00 <_ZL22stbi__g_failure_reason+0x9e8>
   14a0c:	fffff837          	lui	a6,0xfffff
   14a10:	010888b3          	add	a7,a7,a6
   14a14:	02010813          	addi	a6,sp,32
   14a18:	01088833          	add	a6,a7,a6
   14a1c:	64e82423          	sw	a4,1608(a6) # fffff648 <_rgmii_lvl2fifo+0xf0aff648>
   14a20:	64e11b23          	sh	a4,1622(sp)
   14a24:	69612623          	sw	s6,1676(sp)
   14a28:	01012423          	sw	a6,8(sp)
   14a2c:	6af11d23          	sh	a5,1722(sp)
   14a30:	00a70733          	add	a4,a4,a0
   14a34:	00050663          	beqz	a0,14a40 <stbi__compute_huffman_codes+0x5f8>
   14a38:	00002837          	lui	a6,0x2
   14a3c:	38e84e63          	blt	a6,a4,14dd8 <stbi__compute_huffman_codes+0x990>
   14a40:	00a787b3          	add	a5,a5,a0
   14a44:	00001537          	lui	a0,0x1
   14a48:	00171813          	slli	a6,a4,0x1
   14a4c:	00371b93          	slli	s7,a4,0x3
   14a50:	a0050513          	addi	a0,a0,-1536 # a00 <_ZL22stbi__g_failure_reason+0x9e8>
   14a54:	fffff737          	lui	a4,0xfffff
   14a58:	00e50533          	add	a0,a0,a4
   14a5c:	02010713          	addi	a4,sp,32
   14a60:	00e50733          	add	a4,a0,a4
   14a64:	65072623          	sw	a6,1612(a4) # fffff64c <_rgmii_lvl2fifo+0xf0aff64c>
   14a68:	65011c23          	sh	a6,1624(sp)
   14a6c:	69712823          	sw	s7,1680(sp)
   14a70:	00e12423          	sw	a4,8(sp)
   14a74:	6af11e23          	sh	a5,1724(sp)
   14a78:	00b80833          	add	a6,a6,a1
   14a7c:	00058663          	beqz	a1,14a88 <stbi__compute_huffman_codes+0x640>
   14a80:	00004737          	lui	a4,0x4
   14a84:	35074a63          	blt	a4,a6,14dd8 <stbi__compute_huffman_codes+0x990>
   14a88:	00b787b3          	add	a5,a5,a1
   14a8c:	000015b7          	lui	a1,0x1
   14a90:	fffff537          	lui	a0,0xfffff
   14a94:	a0058593          	addi	a1,a1,-1536 # a00 <_ZL22stbi__g_failure_reason+0x9e8>
   14a98:	00a585b3          	add	a1,a1,a0
   14a9c:	02010513          	addi	a0,sp,32
   14aa0:	00181713          	slli	a4,a6,0x1
   14aa4:	00a585b3          	add	a1,a1,a0
   14aa8:	00281813          	slli	a6,a6,0x2
   14aac:	64e5a823          	sw	a4,1616(a1)
   14ab0:	64e11d23          	sh	a4,1626(sp)
   14ab4:	01012423          	sw	a6,8(sp)
   14ab8:	69012a23          	sw	a6,1684(sp)
   14abc:	00b12623          	sw	a1,12(sp)
   14ac0:	6af11f23          	sh	a5,1726(sp)
   14ac4:	00e60733          	add	a4,a2,a4
   14ac8:	02061ee3          	bnez	a2,15304 <stbi__compute_huffman_codes+0xebc>
   14acc:	00171713          	slli	a4,a4,0x1
   14ad0:	00e12623          	sw	a4,12(sp)
   14ad4:	68e12c23          	sw	a4,1688(sp)
   14ad8:	00001737          	lui	a4,0x1
   14adc:	fffff337          	lui	t1,0xfffff
   14ae0:	a0070713          	addi	a4,a4,-1536 # a00 <_ZL22stbi__g_failure_reason+0x9e8>
   14ae4:	00670733          	add	a4,a4,t1
   14ae8:	02010593          	addi	a1,sp,32
   14aec:	00b70333          	add	t1,a4,a1
   14af0:	00001737          	lui	a4,0x1
   14af4:	f0f70713          	addi	a4,a4,-241 # f0f <_ZL22stbi__g_failure_reason+0xef7>
   14af8:	000107b7          	lui	a5,0x10
   14afc:	00e12823          	sw	a4,16(sp)
   14b00:	0000f737          	lui	a4,0xf
   14b04:	68f12e23          	sw	a5,1692(sp)
   14b08:	00005db7          	lui	s11,0x5
   14b0c:	0000bd37          	lui	s10,0xb
   14b10:	000033b7          	lui	t2,0x3
   14b14:	0000d2b7          	lui	t0,0xd
   14b18:	0f070713          	addi	a4,a4,240 # f0f0 <_ZL22stbi__g_failure_reason+0xf0d8>
   14b1c:	fff78793          	addi	a5,a5,-1 # ffff <_ZL22stbi__g_failure_reason+0xffe7>
   14b20:	00000613          	li	a2,0
   14b24:	00900f93          	li	t6,9
   14b28:	555d8d93          	addi	s11,s11,1365 # 5555 <_ZL22stbi__g_failure_reason+0x553d>
   14b2c:	aaad0d13          	addi	s10,s10,-1366 # aaaa <_ZL22stbi__g_failure_reason+0xaa92>
   14b30:	33338393          	addi	t2,t2,819 # 3333 <_ZL22stbi__g_failure_reason+0x331b>
   14b34:	ccc28293          	addi	t0,t0,-820 # cccc <_ZL22stbi__g_failure_reason+0xccb4>
   14b38:	00e12a23          	sw	a4,20(sp)
   14b3c:	00f12c23          	sw	a5,24(sp)
   14b40:	00100c93          	li	s9,1
   14b44:	00200c13          	li	s8,2
   14b48:	1ff00e93          	li	t4,511
   14b4c:	01300f13          	li	t5,19
   14b50:	01712e23          	sw	s7,28(sp)
   14b54:	01c0006f          	j	14b70 <stbi__compute_huffman_codes+0x728>
   14b58:	01030833          	add	a6,t1,a6
   14b5c:	00150513          	addi	a0,a0,1 # fffff001 <_rgmii_lvl2fifo+0xf0aff001>
   14b60:	60a82a23          	sw	a0,1556(a6) # 2614 <_ZL22stbi__g_failure_reason+0x25fc>
   14b64:	00160613          	addi	a2,a2,1
   14b68:	00168693          	addi	a3,a3,1
   14b6c:	27e60e63          	beq	a2,t5,14de8 <stbi__compute_huffman_codes+0x9a0>
   14b70:	0006c783          	lbu	a5,0(a3)
   14b74:	fe0788e3          	beqz	a5,14b64 <stbi__compute_huffman_codes+0x71c>
   14b78:	00001e37          	lui	t3,0x1
   14b7c:	20078713          	addi	a4,a5,512
   14b80:	00171713          	slli	a4,a4,0x1
   14b84:	a00e0b93          	addi	s7,t3,-1536 # a00 <_ZL22stbi__g_failure_reason+0x9e8>
   14b88:	00eb8bb3          	add	s7,s7,a4
   14b8c:	23078593          	addi	a1,a5,560
   14b90:	02010713          	addi	a4,sp,32
   14b94:	00eb8733          	add	a4,s7,a4
   14b98:	00159593          	slli	a1,a1,0x1
   14b9c:	a00e0b93          	addi	s7,t3,-1536
   14ba0:	00279813          	slli	a6,a5,0x2
   14ba4:	00bb8bb3          	add	s7,s7,a1
   14ba8:	01030533          	add	a0,t1,a6
   14bac:	02010593          	addi	a1,sp,32
   14bb0:	00bb85b3          	add	a1,s7,a1
   14bb4:	61452503          	lw	a0,1556(a0)
   14bb8:	81c75703          	lhu	a4,-2020(a4)
   14bbc:	8205d583          	lhu	a1,-2016(a1)
   14bc0:	a00e0b93          	addi	s7,t3,-1536
   14bc4:	40e50733          	sub	a4,a0,a4
   14bc8:	00b70733          	add	a4,a4,a1
   14bcc:	2d070593          	addi	a1,a4,720
   14bd0:	00159593          	slli	a1,a1,0x1
   14bd4:	a00e0e13          	addi	t3,t3,-1536
   14bd8:	00eb8bb3          	add	s7,s7,a4
   14bdc:	00be0e33          	add	t3,t3,a1
   14be0:	02010713          	addi	a4,sp,32
   14be4:	02010593          	addi	a1,sp,32
   14be8:	00eb8733          	add	a4,s7,a4
   14bec:	00be05b3          	add	a1,t3,a1
   14bf0:	caf70023          	sb	a5,-864(a4)
   14bf4:	82c59023          	sh	a2,-2016(a1)
   14bf8:	f6ffc0e3          	blt	t6,a5,14b58 <stbi__compute_huffman_codes+0x710>
   14bfc:	40155713          	srai	a4,a0,0x1
   14c00:	00151593          	slli	a1,a0,0x1
   14c04:	01a5f5b3          	and	a1,a1,s10
   14c08:	01b77733          	and	a4,a4,s11
   14c0c:	00b76733          	or	a4,a4,a1
   14c10:	40275593          	srai	a1,a4,0x2
   14c14:	00271713          	slli	a4,a4,0x2
   14c18:	01012e03          	lw	t3,16(sp)
   14c1c:	00577733          	and	a4,a4,t0
   14c20:	0075f5b3          	and	a1,a1,t2
   14c24:	00e5e5b3          	or	a1,a1,a4
   14c28:	4045d713          	srai	a4,a1,0x4
   14c2c:	01c77733          	and	a4,a4,t3
   14c30:	01412e03          	lw	t3,20(sp)
   14c34:	00459593          	slli	a1,a1,0x4
   14c38:	23c10893          	addi	a7,sp,572
   14c3c:	01c5f5b3          	and	a1,a1,t3
   14c40:	01812e03          	lw	t3,24(sp)
   14c44:	00b76733          	or	a4,a4,a1
   14c48:	00871593          	slli	a1,a4,0x8
   14c4c:	01c5f5b3          	and	a1,a1,t3
   14c50:	40875713          	srai	a4,a4,0x8
   14c54:	00b76733          	or	a4,a4,a1
   14c58:	01000593          	li	a1,16
   14c5c:	40f585b3          	sub	a1,a1,a5
   14c60:	00979e13          	slli	t3,a5,0x9
   14c64:	40b75733          	sra	a4,a4,a1
   14c68:	00ce6e33          	or	t3,t3,a2
   14c6c:	00171593          	slli	a1,a4,0x1
   14c70:	010e1e13          	slli	t3,t3,0x10
   14c74:	00fc9bb3          	sll	s7,s9,a5
   14c78:	010e5e13          	srli	t3,t3,0x10
   14c7c:	00fc17b3          	sll	a5,s8,a5
   14c80:	00b885b3          	add	a1,a7,a1
   14c84:	01c59023          	sh	t3,0(a1)
   14c88:	01770733          	add	a4,a4,s7
   14c8c:	00f585b3          	add	a1,a1,a5
   14c90:	feeedae3          	bge	t4,a4,14c84 <stbi__compute_huffman_codes+0x83c>
   14c94:	ec5ff06f          	j	14b58 <stbi__compute_huffman_codes+0x710>
   14c98:	0044a603          	lw	a2,4(s1)
   14c9c:	0087d733          	srl	a4,a5,s0
   14ca0:	02071c63          	bnez	a4,14cd8 <stbi__compute_huffman_codes+0x890>
   14ca4:	0004a703          	lw	a4,0(s1)
   14ca8:	00170693          	addi	a3,a4,1
   14cac:	02c77a63          	bgeu	a4,a2,14ce0 <stbi__compute_huffman_codes+0x898>
   14cb0:	00d4a023          	sw	a3,0(s1)
   14cb4:	00074703          	lbu	a4,0(a4)
   14cb8:	00871733          	sll	a4,a4,s0
   14cbc:	00e7e7b3          	or	a5,a5,a4
   14cc0:	00840413          	addi	s0,s0,8
   14cc4:	00f4a823          	sw	a5,16(s1)
   14cc8:	0084a423          	sw	s0,8(s1)
   14ccc:	8688c2e3          	blt	a7,s0,14530 <stbi__compute_huffman_codes+0xe8>
   14cd0:	0087d733          	srl	a4,a5,s0
   14cd4:	fc0708e3          	beqz	a4,14ca4 <stbi__compute_huffman_codes+0x85c>
   14cd8:	00c4a023          	sw	a2,0(s1)
   14cdc:	855ff06f          	j	14530 <stbi__compute_huffman_codes+0xe8>
   14ce0:	00840413          	addi	s0,s0,8
   14ce4:	00f4a823          	sw	a5,16(s1)
   14ce8:	0084a423          	sw	s0,8(s1)
   14cec:	fa88d8e3          	bge	a7,s0,14c9c <stbi__compute_huffman_codes+0x854>
   14cf0:	841ff06f          	j	14530 <stbi__compute_huffman_codes+0xe8>
   14cf4:	0003c737          	lui	a4,0x3c
   14cf8:	1dc70713          	addi	a4,a4,476 # 3c1dc <_cmdr_inst_end+0xb4>
   14cfc:	00e22c23          	sw	a4,24(tp) # 18 <_ZL22stbi__g_failure_reason>
   14d00:	00000513          	li	a0,0
   14d04:	27010113          	addi	sp,sp,624
   14d08:	7ec12083          	lw	ra,2028(sp)
   14d0c:	7e812403          	lw	s0,2024(sp)
   14d10:	7e412483          	lw	s1,2020(sp)
   14d14:	7e012903          	lw	s2,2016(sp)
   14d18:	7dc12983          	lw	s3,2012(sp)
   14d1c:	7d812a03          	lw	s4,2008(sp)
   14d20:	7d412a83          	lw	s5,2004(sp)
   14d24:	7d012b03          	lw	s6,2000(sp)
   14d28:	7cc12b83          	lw	s7,1996(sp)
   14d2c:	7c812c03          	lw	s8,1992(sp)
   14d30:	7c412c83          	lw	s9,1988(sp)
   14d34:	7c012d03          	lw	s10,1984(sp)
   14d38:	7bc12d83          	lw	s11,1980(sp)
   14d3c:	7f010113          	addi	sp,sp,2032
   14d40:	00008067          	ret
   14d44:	40165713          	srai	a4,a2,0x1
   14d48:	00161593          	slli	a1,a2,0x1
   14d4c:	0135f5b3          	and	a1,a1,s3
   14d50:	01a77733          	and	a4,a4,s10
   14d54:	00b76733          	or	a4,a4,a1
   14d58:	00003537          	lui	a0,0x3
   14d5c:	40275593          	srai	a1,a4,0x2
   14d60:	33350513          	addi	a0,a0,819 # 3333 <_ZL22stbi__g_failure_reason+0x331b>
   14d64:	00a5f5b3          	and	a1,a1,a0
   14d68:	0000d537          	lui	a0,0xd
   14d6c:	ccc50513          	addi	a0,a0,-820 # cccc <_ZL22stbi__g_failure_reason+0xccb4>
   14d70:	00271713          	slli	a4,a4,0x2
   14d74:	00a77733          	and	a4,a4,a0
   14d78:	00e5e733          	or	a4,a1,a4
   14d7c:	00001537          	lui	a0,0x1
   14d80:	40475593          	srai	a1,a4,0x4
   14d84:	f0f50513          	addi	a0,a0,-241 # f0f <_ZL22stbi__g_failure_reason+0xef7>
   14d88:	00a5f5b3          	and	a1,a1,a0
   14d8c:	0000f537          	lui	a0,0xf
   14d90:	0f050513          	addi	a0,a0,240 # f0f0 <_ZL22stbi__g_failure_reason+0xf0d8>
   14d94:	00471713          	slli	a4,a4,0x4
   14d98:	00a77733          	and	a4,a4,a0
   14d9c:	00e5e733          	or	a4,a1,a4
   14da0:	00010537          	lui	a0,0x10
   14da4:	00871593          	slli	a1,a4,0x8
   14da8:	fff50513          	addi	a0,a0,-1 # ffff <_ZL22stbi__g_failure_reason+0xffe7>
   14dac:	40875713          	srai	a4,a4,0x8
   14db0:	00a5f5b3          	and	a1,a1,a0
   14db4:	00b76733          	or	a4,a4,a1
   14db8:	45474063          	blt	a4,s4,151f8 <stbi__compute_huffman_codes+0xdb0>
   14dbc:	4d574863          	blt	a4,s5,1528c <stbi__compute_huffman_codes+0xe44>
   14dc0:	53674e63          	blt	a4,s6,152fc <stbi__compute_huffman_codes+0xeb4>
   14dc4:	55774a63          	blt	a4,s7,15318 <stbi__compute_huffman_codes+0xed0>
   14dc8:	00812783          	lw	a5,8(sp)
   14dcc:	54f74a63          	blt	a4,a5,15320 <stbi__compute_huffman_codes+0xed8>
   14dd0:	00c12783          	lw	a5,12(sp)
   14dd4:	52f74e63          	blt	a4,a5,15310 <stbi__compute_huffman_codes+0xec8>
   14dd8:	0003c737          	lui	a4,0x3c
   14ddc:	1cc70713          	addi	a4,a4,460 # 3c1cc <_cmdr_inst_end+0xa4>
   14de0:	00e22c23          	sw	a4,24(tp) # 18 <_ZL22stbi__g_failure_reason>
   14de4:	f1dff06f          	j	14d00 <stbi__compute_huffman_codes+0x8b8>
   14de8:	fffff7b7          	lui	a5,0xfffff
   14dec:	00001637          	lui	a2,0x1
   14df0:	65478d93          	addi	s11,a5,1620 # fffff654 <_rgmii_lvl2fifo+0xf0aff654>
   14df4:	a0060713          	addi	a4,a2,-1536 # a00 <_ZL22stbi__g_failure_reason+0x9e8>
   14df8:	01b70733          	add	a4,a4,s11
   14dfc:	02010593          	addi	a1,sp,32
   14e00:	01f9f813          	andi	a6,s3,31
   14e04:	01f97693          	andi	a3,s2,31
   14e08:	00b70db3          	add	s11,a4,a1
   14e0c:	a0060713          	addi	a4,a2,-1536
   14e10:	00168693          	addi	a3,a3,1
   14e14:	10180813          	addi	a6,a6,257
   14e18:	00f70733          	add	a4,a4,a5
   14e1c:	00d80c33          	add	s8,a6,a3
   14e20:	00005d37          	lui	s10,0x5
   14e24:	0000b9b7          	lui	s3,0xb
   14e28:	00b70933          	add	s2,a4,a1
   14e2c:	00d12a23          	sw	a3,20(sp)
   14e30:	01012823          	sw	a6,16(sp)
   14e34:	00040693          	mv	a3,s0
   14e38:	00f00713          	li	a4,15
   14e3c:	01c12b83          	lw	s7,28(sp)
   14e40:	00000c93          	li	s9,0
   14e44:	555d0d13          	addi	s10,s10,1365 # 5555 <_ZL22stbi__g_failure_reason+0x553d>
   14e48:	aaa98993          	addi	s3,s3,-1366 # aaaa <_ZL22stbi__g_failure_reason+0xaa92>
   14e4c:	08d74a63          	blt	a4,a3,14ee0 <stbi__compute_huffman_codes+0xa98>
   14e50:	0044a583          	lw	a1,4(s1)
   14e54:	0004a703          	lw	a4,0(s1)
   14e58:	14b76a63          	bltu	a4,a1,14fac <stbi__compute_huffman_codes+0xb64>
   14e5c:	00c4a703          	lw	a4,12(s1)
   14e60:	f6071ce3          	bnez	a4,14dd8 <stbi__compute_huffman_codes+0x990>
   14e64:	0104a603          	lw	a2,16(s1)
   14e68:	01068693          	addi	a3,a3,16
   14e6c:	00100713          	li	a4,1
   14e70:	00e4a623          	sw	a4,12(s1)
   14e74:	00d4a423          	sw	a3,8(s1)
   14e78:	1ff67713          	andi	a4,a2,511
   14e7c:	000017b7          	lui	a5,0x1
   14e80:	00171713          	slli	a4,a4,0x1
   14e84:	a0078793          	addi	a5,a5,-1536 # a00 <_ZL22stbi__g_failure_reason+0x9e8>
   14e88:	00e787b3          	add	a5,a5,a4
   14e8c:	02010713          	addi	a4,sp,32
   14e90:	00e78733          	add	a4,a5,a4
   14e94:	81c75583          	lhu	a1,-2020(a4)
   14e98:	ea0586e3          	beqz	a1,14d44 <stbi__compute_huffman_codes+0x8fc>
   14e9c:	4095d713          	srai	a4,a1,0x9
   14ea0:	00e65633          	srl	a2,a2,a4
   14ea4:	40e68733          	sub	a4,a3,a4
   14ea8:	00c4a823          	sw	a2,16(s1)
   14eac:	00e4a423          	sw	a4,8(s1)
   14eb0:	1ff5f593          	andi	a1,a1,511
   14eb4:	01200713          	li	a4,18
   14eb8:	f2b740e3          	blt	a4,a1,14dd8 <stbi__compute_huffman_codes+0x990>
   14ebc:	00f00713          	li	a4,15
   14ec0:	02b74463          	blt	a4,a1,14ee8 <stbi__compute_huffman_codes+0xaa0>
   14ec4:	01990733          	add	a4,s2,s9
   14ec8:	64b70a23          	sb	a1,1620(a4)
   14ecc:	001c8c93          	addi	s9,s9,1
   14ed0:	078cd863          	bge	s9,s8,14f40 <stbi__compute_huffman_codes+0xaf8>
   14ed4:	0084a683          	lw	a3,8(s1)
   14ed8:	00f00713          	li	a4,15
   14edc:	f6d75ae3          	bge	a4,a3,14e50 <stbi__compute_huffman_codes+0xa08>
   14ee0:	0104a603          	lw	a2,16(s1)
   14ee4:	f95ff06f          	j	14e78 <stbi__compute_huffman_codes+0xa30>
   14ee8:	01000613          	li	a2,16
   14eec:	0084a703          	lw	a4,8(s1)
   14ef0:	0104a683          	lw	a3,16(s1)
   14ef4:	10c58c63          	beq	a1,a2,1500c <stbi__compute_huffman_codes+0xbc4>
   14ef8:	01100613          	li	a2,17
   14efc:	14c58063          	beq	a1,a2,1503c <stbi__compute_huffman_codes+0xbf4>
   14f00:	00600613          	li	a2,6
   14f04:	28e65a63          	bge	a2,a4,15198 <stbi__compute_huffman_codes+0xd50>
   14f08:	0076d613          	srli	a2,a3,0x7
   14f0c:	ff970713          	addi	a4,a4,-7
   14f10:	07f6f693          	andi	a3,a3,127
   14f14:	00c4a823          	sw	a2,16(s1)
   14f18:	00e4a423          	sw	a4,8(s1)
   14f1c:	00b68413          	addi	s0,a3,11
   14f20:	00000593          	li	a1,0
   14f24:	419c0733          	sub	a4,s8,s9
   14f28:	ea8748e3          	blt	a4,s0,14dd8 <stbi__compute_huffman_codes+0x990>
   14f2c:	019d8533          	add	a0,s11,s9
   14f30:	00040613          	mv	a2,s0
   14f34:	008c8cb3          	add	s9,s9,s0
   14f38:	330120ef          	jal	ra,27268 <memset>
   14f3c:	f98ccce3          	blt	s9,s8,14ed4 <stbi__compute_huffman_codes+0xa8c>
   14f40:	01012803          	lw	a6,16(sp)
   14f44:	01412683          	lw	a3,20(sp)
   14f48:	e99c18e3          	bne	s8,s9,14dd8 <stbi__compute_huffman_codes+0x990>
   14f4c:	fffff437          	lui	s0,0xfffff
   14f50:	000017b7          	lui	a5,0x1
   14f54:	65440413          	addi	s0,s0,1620 # fffff654 <_rgmii_lvl2fifo+0xf0aff654>
   14f58:	a0078793          	addi	a5,a5,-1536 # a00 <_ZL22stbi__g_failure_reason+0x9e8>
   14f5c:	008787b3          	add	a5,a5,s0
   14f60:	02010713          	addi	a4,sp,32
   14f64:	00e78433          	add	s0,a5,a4
   14f68:	00080613          	mv	a2,a6
   14f6c:	00040593          	mv	a1,s0
   14f70:	02448513          	addi	a0,s1,36
   14f74:	00d12623          	sw	a3,12(sp)
   14f78:	01012423          	sw	a6,8(sp)
   14f7c:	cfdfc0ef          	jal	ra,11c78 <stbi__zbuild_huffman>
   14f80:	d80500e3          	beqz	a0,14d00 <stbi__compute_huffman_codes+0x8b8>
   14f84:	00c12683          	lw	a3,12(sp)
   14f88:	00812803          	lw	a6,8(sp)
   14f8c:	00001537          	lui	a0,0x1
   14f90:	80850513          	addi	a0,a0,-2040 # 808 <_ZL22stbi__g_failure_reason+0x7f0>
   14f94:	00068613          	mv	a2,a3
   14f98:	010405b3          	add	a1,s0,a6
   14f9c:	00a48533          	add	a0,s1,a0
   14fa0:	cd9fc0ef          	jal	ra,11c78 <stbi__zbuild_huffman>
   14fa4:	00a03533          	snez	a0,a0
   14fa8:	d5dff06f          	j	14d04 <stbi__compute_huffman_codes+0x8bc>
   14fac:	0104a603          	lw	a2,16(s1)
   14fb0:	01800313          	li	t1,24
   14fb4:	00d65733          	srl	a4,a2,a3
   14fb8:	02071c63          	bnez	a4,14ff0 <stbi__compute_huffman_codes+0xba8>
   14fbc:	0004a703          	lw	a4,0(s1)
   14fc0:	00170513          	addi	a0,a4,1
   14fc4:	02b77a63          	bgeu	a4,a1,14ff8 <stbi__compute_huffman_codes+0xbb0>
   14fc8:	00a4a023          	sw	a0,0(s1)
   14fcc:	00074703          	lbu	a4,0(a4)
   14fd0:	00d71733          	sll	a4,a4,a3
   14fd4:	00e66633          	or	a2,a2,a4
   14fd8:	00868693          	addi	a3,a3,8
   14fdc:	00c4a823          	sw	a2,16(s1)
   14fe0:	00d4a423          	sw	a3,8(s1)
   14fe4:	e8d34ae3          	blt	t1,a3,14e78 <stbi__compute_huffman_codes+0xa30>
   14fe8:	00d65733          	srl	a4,a2,a3
   14fec:	fc0708e3          	beqz	a4,14fbc <stbi__compute_huffman_codes+0xb74>
   14ff0:	00b4a023          	sw	a1,0(s1)
   14ff4:	e85ff06f          	j	14e78 <stbi__compute_huffman_codes+0xa30>
   14ff8:	00868693          	addi	a3,a3,8
   14ffc:	00c4a823          	sw	a2,16(s1)
   15000:	00d4a423          	sw	a3,8(s1)
   15004:	fad358e3          	bge	t1,a3,14fb4 <stbi__compute_huffman_codes+0xb6c>
   15008:	e71ff06f          	j	14e78 <stbi__compute_huffman_codes+0xa30>
   1500c:	00100613          	li	a2,1
   15010:	28e65663          	bge	a2,a4,1529c <stbi__compute_huffman_codes+0xe54>
   15014:	0026d613          	srli	a2,a3,0x2
   15018:	ffe70713          	addi	a4,a4,-2
   1501c:	0036f693          	andi	a3,a3,3
   15020:	00c4a823          	sw	a2,16(s1)
   15024:	00e4a423          	sw	a4,8(s1)
   15028:	00368413          	addi	s0,a3,3
   1502c:	da0c86e3          	beqz	s9,14dd8 <stbi__compute_huffman_codes+0x990>
   15030:	01990733          	add	a4,s2,s9
   15034:	65374583          	lbu	a1,1619(a4)
   15038:	eedff06f          	j	14f24 <stbi__compute_huffman_codes+0xadc>
   1503c:	00200613          	li	a2,2
   15040:	2ee65463          	bge	a2,a4,15328 <stbi__compute_huffman_codes+0xee0>
   15044:	0036d613          	srli	a2,a3,0x3
   15048:	ffd70713          	addi	a4,a4,-3
   1504c:	0076f693          	andi	a3,a3,7
   15050:	00c4a823          	sw	a2,16(s1)
   15054:	00e4a423          	sw	a4,8(s1)
   15058:	00368413          	addi	s0,a3,3
   1505c:	00000593          	li	a1,0
   15060:	ec5ff06f          	j	14f24 <stbi__compute_huffman_codes+0xadc>
   15064:	0044a683          	lw	a3,4(s1)
   15068:	01800613          	li	a2,24
   1506c:	008957b3          	srl	a5,s2,s0
   15070:	02079c63          	bnez	a5,150a8 <stbi__compute_huffman_codes+0xc60>
   15074:	0004a783          	lw	a5,0(s1)
   15078:	00178713          	addi	a4,a5,1
   1507c:	08d7fa63          	bgeu	a5,a3,15110 <stbi__compute_huffman_codes+0xcc8>
   15080:	00e4a023          	sw	a4,0(s1)
   15084:	0007c783          	lbu	a5,0(a5)
   15088:	008797b3          	sll	a5,a5,s0
   1508c:	00f96933          	or	s2,s2,a5
   15090:	00840413          	addi	s0,s0,8
   15094:	0124a823          	sw	s2,16(s1)
   15098:	0084a423          	sw	s0,8(s1)
   1509c:	c0864a63          	blt	a2,s0,144b0 <stbi__compute_huffman_codes+0x68>
   150a0:	008957b3          	srl	a5,s2,s0
   150a4:	fc0788e3          	beqz	a5,15074 <stbi__compute_huffman_codes+0xc2c>
   150a8:	00595713          	srli	a4,s2,0x5
   150ac:	ffb40413          	addi	s0,s0,-5
   150b0:	00d4a023          	sw	a3,0(s1)
   150b4:	00e4a823          	sw	a4,16(s1)
   150b8:	0084a423          	sw	s0,8(s1)
   150bc:	00300793          	li	a5,3
   150c0:	c087c463          	blt	a5,s0,144c8 <stbi__compute_huffman_codes+0x80>
   150c4:	0044a603          	lw	a2,4(s1)
   150c8:	01800593          	li	a1,24
   150cc:	008757b3          	srl	a5,a4,s0
   150d0:	02079c63          	bnez	a5,15108 <stbi__compute_huffman_codes+0xcc0>
   150d4:	0004a783          	lw	a5,0(s1)
   150d8:	00178693          	addi	a3,a5,1
   150dc:	0ac7f463          	bgeu	a5,a2,15184 <stbi__compute_huffman_codes+0xd3c>
   150e0:	00d4a023          	sw	a3,0(s1)
   150e4:	0007c783          	lbu	a5,0(a5)
   150e8:	008797b3          	sll	a5,a5,s0
   150ec:	00f76733          	or	a4,a4,a5
   150f0:	00840413          	addi	s0,s0,8
   150f4:	00e4a823          	sw	a4,16(s1)
   150f8:	0084a423          	sw	s0,8(s1)
   150fc:	bc85c663          	blt	a1,s0,144c8 <stbi__compute_huffman_codes+0x80>
   15100:	008757b3          	srl	a5,a4,s0
   15104:	fc0788e3          	beqz	a5,150d4 <stbi__compute_huffman_codes+0xc8c>
   15108:	00c4a023          	sw	a2,0(s1)
   1510c:	bbcff06f          	j	144c8 <stbi__compute_huffman_codes+0x80>
   15110:	00840413          	addi	s0,s0,8
   15114:	0124a823          	sw	s2,16(s1)
   15118:	0084a423          	sw	s0,8(s1)
   1511c:	f48658e3          	bge	a2,s0,1506c <stbi__compute_huffman_codes+0xc24>
   15120:	b90ff06f          	j	144b0 <stbi__compute_huffman_codes+0x68>
   15124:	00452683          	lw	a3,4(a0)
   15128:	01800613          	li	a2,24
   1512c:	0089d7b3          	srl	a5,s3,s0
   15130:	02079c63          	bnez	a5,15168 <stbi__compute_huffman_codes+0xd20>
   15134:	0004a783          	lw	a5,0(s1)
   15138:	00178713          	addi	a4,a5,1
   1513c:	02d7fa63          	bgeu	a5,a3,15170 <stbi__compute_huffman_codes+0xd28>
   15140:	00e4a023          	sw	a4,0(s1)
   15144:	0007c783          	lbu	a5,0(a5)
   15148:	008797b3          	sll	a5,a5,s0
   1514c:	00f9e9b3          	or	s3,s3,a5
   15150:	00840413          	addi	s0,s0,8
   15154:	0134a823          	sw	s3,16(s1)
   15158:	0084a423          	sw	s0,8(s1)
   1515c:	b2864e63          	blt	a2,s0,14498 <stbi__compute_huffman_codes+0x50>
   15160:	0089d7b3          	srl	a5,s3,s0
   15164:	fc0788e3          	beqz	a5,15134 <stbi__compute_huffman_codes+0xcec>
   15168:	00d4a023          	sw	a3,0(s1)
   1516c:	b2cff06f          	j	14498 <stbi__compute_huffman_codes+0x50>
   15170:	00840413          	addi	s0,s0,8
   15174:	0134a823          	sw	s3,16(s1)
   15178:	0084a423          	sw	s0,8(s1)
   1517c:	fa8658e3          	bge	a2,s0,1512c <stbi__compute_huffman_codes+0xce4>
   15180:	b18ff06f          	j	14498 <stbi__compute_huffman_codes+0x50>
   15184:	00840413          	addi	s0,s0,8
   15188:	00e4a823          	sw	a4,16(s1)
   1518c:	0084a423          	sw	s0,8(s1)
   15190:	f285dee3          	bge	a1,s0,150cc <stbi__compute_huffman_codes+0xc84>
   15194:	b34ff06f          	j	144c8 <stbi__compute_huffman_codes+0x80>
   15198:	0044a503          	lw	a0,4(s1)
   1519c:	01800313          	li	t1,24
   151a0:	00e6d633          	srl	a2,a3,a4
   151a4:	02061c63          	bnez	a2,151dc <stbi__compute_huffman_codes+0xd94>
   151a8:	0004a603          	lw	a2,0(s1)
   151ac:	00160593          	addi	a1,a2,1
   151b0:	02a67a63          	bgeu	a2,a0,151e4 <stbi__compute_huffman_codes+0xd9c>
   151b4:	00b4a023          	sw	a1,0(s1)
   151b8:	00064603          	lbu	a2,0(a2)
   151bc:	00e61633          	sll	a2,a2,a4
   151c0:	00c6e6b3          	or	a3,a3,a2
   151c4:	00870713          	addi	a4,a4,8
   151c8:	00d4a823          	sw	a3,16(s1)
   151cc:	00e4a423          	sw	a4,8(s1)
   151d0:	d2e34ce3          	blt	t1,a4,14f08 <stbi__compute_huffman_codes+0xac0>
   151d4:	00e6d633          	srl	a2,a3,a4
   151d8:	fc0608e3          	beqz	a2,151a8 <stbi__compute_huffman_codes+0xd60>
   151dc:	00a4a023          	sw	a0,0(s1)
   151e0:	d29ff06f          	j	14f08 <stbi__compute_huffman_codes+0xac0>
   151e4:	00870713          	addi	a4,a4,8
   151e8:	00d4a823          	sw	a3,16(s1)
   151ec:	00e4a423          	sw	a4,8(s1)
   151f0:	fae358e3          	bge	t1,a4,151a0 <stbi__compute_huffman_codes+0xd58>
   151f4:	d15ff06f          	j	14f08 <stbi__compute_huffman_codes+0xac0>
   151f8:	00600e13          	li	t3,6
   151fc:	00a00513          	li	a0,10
   15200:	000017b7          	lui	a5,0x1
   15204:	20050313          	addi	t1,a0,512
   15208:	00131313          	slli	t1,t1,0x1
   1520c:	a0078813          	addi	a6,a5,-1536 # a00 <_ZL22stbi__g_failure_reason+0x9e8>
   15210:	00680833          	add	a6,a6,t1
   15214:	02010893          	addi	a7,sp,32
   15218:	23050593          	addi	a1,a0,560
   1521c:	01180333          	add	t1,a6,a7
